
main.elf:     file format elf32-littleriscv


Disassembly of section .text:

00000000 <_isr_handler>:
       0:	0080006f          	j	8 <_isr_routine>
       4:	1440006f          	j	148 <_start>

00000008 <_isr_routine>:
       8:	f8010113          	addi	sp,sp,-128
       c:	00112023          	sw	ra,0(sp)
      10:	00312423          	sw	gp,8(sp)
      14:	00412623          	sw	tp,12(sp)
      18:	00512823          	sw	t0,16(sp)
      1c:	00612a23          	sw	t1,20(sp)
      20:	00712c23          	sw	t2,24(sp)
      24:	00812e23          	sw	s0,28(sp)
      28:	02912023          	sw	s1,32(sp)
      2c:	02a12223          	sw	a0,36(sp)
      30:	02b12423          	sw	a1,40(sp)
      34:	02c12623          	sw	a2,44(sp)
      38:	02d12823          	sw	a3,48(sp)
      3c:	02e12a23          	sw	a4,52(sp)
      40:	02f12c23          	sw	a5,56(sp)
      44:	03012e23          	sw	a6,60(sp)
      48:	05112023          	sw	a7,64(sp)
      4c:	05212223          	sw	s2,68(sp)
      50:	05312423          	sw	s3,72(sp)
      54:	05412623          	sw	s4,76(sp)
      58:	05512823          	sw	s5,80(sp)
      5c:	05612a23          	sw	s6,84(sp)
      60:	05712c23          	sw	s7,88(sp)
      64:	05812e23          	sw	s8,92(sp)
      68:	07912023          	sw	s9,96(sp)
      6c:	07a12223          	sw	s10,100(sp)
      70:	07b12423          	sw	s11,104(sp)
      74:	07c12623          	sw	t3,108(sp)
      78:	07d12823          	sw	t4,112(sp)
      7c:	07e12a23          	sw	t5,116(sp)
      80:	07f12c23          	sw	t6,120(sp)
      84:	342022f3          	csrr	t0,mcause
      88:	80000337          	lui	t1,0x80000
      8c:	02536463          	bltu	t1,t0,b4 <external_irq>
      90:	00028833          	add	a6,t0,zero
      94:	00b00313          	li	t1,11
      98:	00628463          	beq	t0,t1,a0 <skip_init_args>
      9c:	34102573          	csrr	a0,mepc

000000a0 <skip_init_args>:
      a0:	03c010ef          	jal	10dc <handle_exception>
      a4:	341022f3          	csrr	t0,mepc
      a8:	00428293          	addi	t0,t0,4
      ac:	34129073          	csrw	mepc,t0
      b0:	0180006f          	j	c8 <restore>

000000b4 <external_irq>:
      b4:	800002b7          	lui	t0,0x80000
      b8:	fff28293          	addi	t0,t0,-1 # 7fffffff <_stack_end+0x7fefeb17>
      bc:	34202373          	csrr	t1,mcause
      c0:	0062f533          	and	a0,t0,t1
      c4:	305000ef          	jal	bc8 <handle_interrupt>

000000c8 <restore>:
      c8:	00012083          	lw	ra,0(sp)
      cc:	00812183          	lw	gp,8(sp)
      d0:	00c12203          	lw	tp,12(sp)
      d4:	01012283          	lw	t0,16(sp)
      d8:	01412303          	lw	t1,20(sp)
      dc:	01812383          	lw	t2,24(sp)
      e0:	01c12403          	lw	s0,28(sp)
      e4:	02012483          	lw	s1,32(sp)
      e8:	02412503          	lw	a0,36(sp)
      ec:	02812583          	lw	a1,40(sp)
      f0:	02c12603          	lw	a2,44(sp)
      f4:	03012683          	lw	a3,48(sp)
      f8:	03412703          	lw	a4,52(sp)
      fc:	03812783          	lw	a5,56(sp)
     100:	03c12803          	lw	a6,60(sp)
     104:	04012883          	lw	a7,64(sp)
     108:	04412903          	lw	s2,68(sp)
     10c:	04812983          	lw	s3,72(sp)
     110:	04c12a03          	lw	s4,76(sp)
     114:	05012a83          	lw	s5,80(sp)
     118:	05412b03          	lw	s6,84(sp)
     11c:	05812b83          	lw	s7,88(sp)
     120:	05c12c03          	lw	s8,92(sp)
     124:	06012c83          	lw	s9,96(sp)
     128:	06412d03          	lw	s10,100(sp)
     12c:	06812d83          	lw	s11,104(sp)
     130:	06c12e03          	lw	t3,108(sp)
     134:	07012e83          	lw	t4,112(sp)
     138:	07412f03          	lw	t5,116(sp)
     13c:	07812f83          	lw	t6,120(sp)
     140:	08010113          	addi	sp,sp,128
     144:	30200073          	mret

00000148 <_start>:
     148:	30401073          	csrw	mie,zero
     14c:	00101117          	auipc	sp,0x101
     150:	39c10113          	addi	sp,sp,924 # 1014e8 <_stack_end>
     154:	00002197          	auipc	gp,0x2
     158:	ad918193          	addi	gp,gp,-1319 # 1c2d <__global_pointer>
     15c:	00001517          	auipc	a0,0x1
     160:	1f450513          	addi	a0,a0,500 # 1350 <welcome_msg>
     164:	00400893          	li	a7,4
     168:	00000073          	ecall
     16c:	3c5000ef          	jal	d30 <main>

00000170 <loop>:
     170:	0000006f          	j	170 <loop>

00000174 <enable_interrupts>:
     174:	30486073          	csrsi	mie,16
     178:	3001e073          	csrsi	mstatus,3
     17c:	00008067          	ret

00000180 <set_displays.constprop.0>:
     180:	00051a63          	bnez	a0,194 <set_displays.constprop.0+0x14>
     184:	040007b7          	lui	a5,0x4000
     188:	fc000713          	li	a4,-64
     18c:	0ae78023          	sb	a4,160(a5) # 40000a0 <_stack_end+0x3efebb8>
     190:	00008067          	ret
     194:	00100793          	li	a5,1
     198:	00f50e63          	beq	a0,a5,1b4 <set_displays.constprop.0+0x34>
     19c:	00200793          	li	a5,2
     1a0:	02f51263          	bne	a0,a5,1c4 <set_displays.constprop.0+0x44>
     1a4:	040007b7          	lui	a5,0x4000
     1a8:	fa400713          	li	a4,-92
     1ac:	0ae78023          	sb	a4,160(a5) # 40000a0 <_stack_end+0x3efebb8>
     1b0:	00008067          	ret
     1b4:	040007b7          	lui	a5,0x4000
     1b8:	ff900713          	li	a4,-7
     1bc:	0ae78023          	sb	a4,160(a5) # 40000a0 <_stack_end+0x3efebb8>
     1c0:	00008067          	ret
     1c4:	00300793          	li	a5,3
     1c8:	00f51a63          	bne	a0,a5,1dc <set_displays.constprop.0+0x5c>
     1cc:	040007b7          	lui	a5,0x4000
     1d0:	fb000713          	li	a4,-80
     1d4:	0ae78023          	sb	a4,160(a5) # 40000a0 <_stack_end+0x3efebb8>
     1d8:	00008067          	ret
     1dc:	00400793          	li	a5,4
     1e0:	00f50e63          	beq	a0,a5,1fc <set_displays.constprop.0+0x7c>
     1e4:	00500793          	li	a5,5
     1e8:	02f51263          	bne	a0,a5,20c <set_displays.constprop.0+0x8c>
     1ec:	040007b7          	lui	a5,0x4000
     1f0:	f9200713          	li	a4,-110
     1f4:	0ae78023          	sb	a4,160(a5) # 40000a0 <_stack_end+0x3efebb8>
     1f8:	00008067          	ret
     1fc:	040007b7          	lui	a5,0x4000
     200:	f9900713          	li	a4,-103
     204:	0ae78023          	sb	a4,160(a5) # 40000a0 <_stack_end+0x3efebb8>
     208:	00008067          	ret
     20c:	00600793          	li	a5,6
     210:	00f51a63          	bne	a0,a5,224 <set_displays.constprop.0+0xa4>
     214:	040007b7          	lui	a5,0x4000
     218:	f8200713          	li	a4,-126
     21c:	0ae78023          	sb	a4,160(a5) # 40000a0 <_stack_end+0x3efebb8>
     220:	00008067          	ret
     224:	00700793          	li	a5,7
     228:	00f50e63          	beq	a0,a5,244 <set_displays.constprop.0+0xc4>
     22c:	00800793          	li	a5,8
     230:	02f51263          	bne	a0,a5,254 <set_displays.constprop.0+0xd4>
     234:	040007b7          	lui	a5,0x4000
     238:	f8000713          	li	a4,-128
     23c:	0ae78023          	sb	a4,160(a5) # 40000a0 <_stack_end+0x3efebb8>
     240:	00008067          	ret
     244:	040007b7          	lui	a5,0x4000
     248:	ff800713          	li	a4,-8
     24c:	0ae78023          	sb	a4,160(a5) # 40000a0 <_stack_end+0x3efebb8>
     250:	00008067          	ret
     254:	00900793          	li	a5,9
     258:	00f51a63          	bne	a0,a5,26c <set_displays.constprop.0+0xec>
     25c:	040007b7          	lui	a5,0x4000
     260:	f9000713          	li	a4,-112
     264:	0ae78023          	sb	a4,160(a5) # 40000a0 <_stack_end+0x3efebb8>
     268:	00008067          	ret
     26c:	00a00793          	li	a5,10
     270:	00f51863          	bne	a0,a5,280 <set_displays.constprop.0+0x100>
     274:	040007b7          	lui	a5,0x4000
     278:	fbf00713          	li	a4,-65
     27c:	0ae78023          	sb	a4,160(a5) # 40000a0 <_stack_end+0x3efebb8>
     280:	00008067          	ret

00000284 <set_displays.constprop.1>:
     284:	02051263          	bnez	a0,2a8 <set_displays.constprop.1+0x24>
     288:	040007b7          	lui	a5,0x4000
     28c:	fc000713          	li	a4,-64
     290:	08e78823          	sb	a4,144(a5) # 4000090 <_stack_end+0x3efeba8>
     294:	040007b7          	lui	a5,0x4000
     298:	0907c703          	lbu	a4,144(a5) # 4000090 <_stack_end+0x3efeba8>
     29c:	08074713          	xori	a4,a4,128
     2a0:	08e78823          	sb	a4,144(a5)
     2a4:	00008067          	ret
     2a8:	00100793          	li	a5,1
     2ac:	02f50663          	beq	a0,a5,2d8 <set_displays.constprop.1+0x54>
     2b0:	00200793          	li	a5,2
     2b4:	04f51263          	bne	a0,a5,2f8 <set_displays.constprop.1+0x74>
     2b8:	040007b7          	lui	a5,0x4000
     2bc:	fa400713          	li	a4,-92
     2c0:	08e78823          	sb	a4,144(a5) # 4000090 <_stack_end+0x3efeba8>
     2c4:	040007b7          	lui	a5,0x4000
     2c8:	0907c703          	lbu	a4,144(a5) # 4000090 <_stack_end+0x3efeba8>
     2cc:	08074713          	xori	a4,a4,128
     2d0:	08e78823          	sb	a4,144(a5)
     2d4:	00008067          	ret
     2d8:	040007b7          	lui	a5,0x4000
     2dc:	ff900713          	li	a4,-7
     2e0:	08e78823          	sb	a4,144(a5) # 4000090 <_stack_end+0x3efeba8>
     2e4:	040007b7          	lui	a5,0x4000
     2e8:	0907c703          	lbu	a4,144(a5) # 4000090 <_stack_end+0x3efeba8>
     2ec:	08074713          	xori	a4,a4,128
     2f0:	08e78823          	sb	a4,144(a5)
     2f4:	00008067          	ret
     2f8:	00300793          	li	a5,3
     2fc:	00f51a63          	bne	a0,a5,310 <set_displays.constprop.1+0x8c>
     300:	040007b7          	lui	a5,0x4000
     304:	fb000713          	li	a4,-80
     308:	08e78823          	sb	a4,144(a5) # 4000090 <_stack_end+0x3efeba8>
     30c:	f89ff06f          	j	294 <set_displays.constprop.1+0x10>
     310:	00400793          	li	a5,4
     314:	00f50e63          	beq	a0,a5,330 <set_displays.constprop.1+0xac>
     318:	00500793          	li	a5,5
     31c:	02f51a63          	bne	a0,a5,350 <set_displays.constprop.1+0xcc>
     320:	040007b7          	lui	a5,0x4000
     324:	f9200713          	li	a4,-110
     328:	08e78823          	sb	a4,144(a5) # 4000090 <_stack_end+0x3efeba8>
     32c:	f69ff06f          	j	294 <set_displays.constprop.1+0x10>
     330:	040007b7          	lui	a5,0x4000
     334:	f9900713          	li	a4,-103
     338:	08e78823          	sb	a4,144(a5) # 4000090 <_stack_end+0x3efeba8>
     33c:	040007b7          	lui	a5,0x4000
     340:	0907c703          	lbu	a4,144(a5) # 4000090 <_stack_end+0x3efeba8>
     344:	08074713          	xori	a4,a4,128
     348:	08e78823          	sb	a4,144(a5)
     34c:	00008067          	ret
     350:	00600793          	li	a5,6
     354:	00f51a63          	bne	a0,a5,368 <set_displays.constprop.1+0xe4>
     358:	040007b7          	lui	a5,0x4000
     35c:	f8200713          	li	a4,-126
     360:	08e78823          	sb	a4,144(a5) # 4000090 <_stack_end+0x3efeba8>
     364:	f31ff06f          	j	294 <set_displays.constprop.1+0x10>
     368:	00700793          	li	a5,7
     36c:	02f50663          	beq	a0,a5,398 <set_displays.constprop.1+0x114>
     370:	00800793          	li	a5,8
     374:	04f51263          	bne	a0,a5,3b8 <set_displays.constprop.1+0x134>
     378:	040007b7          	lui	a5,0x4000
     37c:	f8000713          	li	a4,-128
     380:	08e78823          	sb	a4,144(a5) # 4000090 <_stack_end+0x3efeba8>
     384:	040007b7          	lui	a5,0x4000
     388:	0907c703          	lbu	a4,144(a5) # 4000090 <_stack_end+0x3efeba8>
     38c:	08074713          	xori	a4,a4,128
     390:	08e78823          	sb	a4,144(a5)
     394:	00008067          	ret
     398:	040007b7          	lui	a5,0x4000
     39c:	ff800713          	li	a4,-8
     3a0:	08e78823          	sb	a4,144(a5) # 4000090 <_stack_end+0x3efeba8>
     3a4:	040007b7          	lui	a5,0x4000
     3a8:	0907c703          	lbu	a4,144(a5) # 4000090 <_stack_end+0x3efeba8>
     3ac:	08074713          	xori	a4,a4,128
     3b0:	08e78823          	sb	a4,144(a5)
     3b4:	00008067          	ret
     3b8:	00900793          	li	a5,9
     3bc:	00f51a63          	bne	a0,a5,3d0 <set_displays.constprop.1+0x14c>
     3c0:	040007b7          	lui	a5,0x4000
     3c4:	f9000713          	li	a4,-112
     3c8:	08e78823          	sb	a4,144(a5) # 4000090 <_stack_end+0x3efeba8>
     3cc:	ec9ff06f          	j	294 <set_displays.constprop.1+0x10>
     3d0:	00a00793          	li	a5,10
     3d4:	ecf510e3          	bne	a0,a5,294 <set_displays.constprop.1+0x10>
     3d8:	040007b7          	lui	a5,0x4000
     3dc:	fbf00713          	li	a4,-65
     3e0:	08e78823          	sb	a4,144(a5) # 4000090 <_stack_end+0x3efeba8>
     3e4:	eb1ff06f          	j	294 <set_displays.constprop.1+0x10>

000003e8 <set_displays.constprop.2>:
     3e8:	00051a63          	bnez	a0,3fc <set_displays.constprop.2+0x14>
     3ec:	040007b7          	lui	a5,0x4000
     3f0:	fc000713          	li	a4,-64
     3f4:	08e78023          	sb	a4,128(a5) # 4000080 <_stack_end+0x3efeb98>
     3f8:	00008067          	ret
     3fc:	00100793          	li	a5,1
     400:	00f50e63          	beq	a0,a5,41c <set_displays.constprop.2+0x34>
     404:	00200793          	li	a5,2
     408:	02f51263          	bne	a0,a5,42c <set_displays.constprop.2+0x44>
     40c:	040007b7          	lui	a5,0x4000
     410:	fa400713          	li	a4,-92
     414:	08e78023          	sb	a4,128(a5) # 4000080 <_stack_end+0x3efeb98>
     418:	00008067          	ret
     41c:	040007b7          	lui	a5,0x4000
     420:	ff900713          	li	a4,-7
     424:	08e78023          	sb	a4,128(a5) # 4000080 <_stack_end+0x3efeb98>
     428:	00008067          	ret
     42c:	00300793          	li	a5,3
     430:	00f51a63          	bne	a0,a5,444 <set_displays.constprop.2+0x5c>
     434:	040007b7          	lui	a5,0x4000
     438:	fb000713          	li	a4,-80
     43c:	08e78023          	sb	a4,128(a5) # 4000080 <_stack_end+0x3efeb98>
     440:	00008067          	ret
     444:	00400793          	li	a5,4
     448:	00f50e63          	beq	a0,a5,464 <set_displays.constprop.2+0x7c>
     44c:	00500793          	li	a5,5
     450:	02f51263          	bne	a0,a5,474 <set_displays.constprop.2+0x8c>
     454:	040007b7          	lui	a5,0x4000
     458:	f9200713          	li	a4,-110
     45c:	08e78023          	sb	a4,128(a5) # 4000080 <_stack_end+0x3efeb98>
     460:	00008067          	ret
     464:	040007b7          	lui	a5,0x4000
     468:	f9900713          	li	a4,-103
     46c:	08e78023          	sb	a4,128(a5) # 4000080 <_stack_end+0x3efeb98>
     470:	00008067          	ret
     474:	00600793          	li	a5,6
     478:	00f51a63          	bne	a0,a5,48c <set_displays.constprop.2+0xa4>
     47c:	040007b7          	lui	a5,0x4000
     480:	f8200713          	li	a4,-126
     484:	08e78023          	sb	a4,128(a5) # 4000080 <_stack_end+0x3efeb98>
     488:	00008067          	ret
     48c:	00700793          	li	a5,7
     490:	00f50e63          	beq	a0,a5,4ac <set_displays.constprop.2+0xc4>
     494:	00800793          	li	a5,8
     498:	02f51263          	bne	a0,a5,4bc <set_displays.constprop.2+0xd4>
     49c:	040007b7          	lui	a5,0x4000
     4a0:	f8000713          	li	a4,-128
     4a4:	08e78023          	sb	a4,128(a5) # 4000080 <_stack_end+0x3efeb98>
     4a8:	00008067          	ret
     4ac:	040007b7          	lui	a5,0x4000
     4b0:	ff800713          	li	a4,-8
     4b4:	08e78023          	sb	a4,128(a5) # 4000080 <_stack_end+0x3efeb98>
     4b8:	00008067          	ret
     4bc:	00900793          	li	a5,9
     4c0:	00f51a63          	bne	a0,a5,4d4 <set_displays.constprop.2+0xec>
     4c4:	040007b7          	lui	a5,0x4000
     4c8:	f9000713          	li	a4,-112
     4cc:	08e78023          	sb	a4,128(a5) # 4000080 <_stack_end+0x3efeb98>
     4d0:	00008067          	ret
     4d4:	00a00793          	li	a5,10
     4d8:	00f51863          	bne	a0,a5,4e8 <set_displays.constprop.2+0x100>
     4dc:	040007b7          	lui	a5,0x4000
     4e0:	fbf00713          	li	a4,-65
     4e4:	08e78023          	sb	a4,128(a5) # 4000080 <_stack_end+0x3efeb98>
     4e8:	00008067          	ret

000004ec <set_displays.constprop.3>:
     4ec:	02051263          	bnez	a0,510 <set_displays.constprop.3+0x24>
     4f0:	040007b7          	lui	a5,0x4000
     4f4:	fc000713          	li	a4,-64
     4f8:	06e78823          	sb	a4,112(a5) # 4000070 <_stack_end+0x3efeb88>
     4fc:	040007b7          	lui	a5,0x4000
     500:	0707c703          	lbu	a4,112(a5) # 4000070 <_stack_end+0x3efeb88>
     504:	08074713          	xori	a4,a4,128
     508:	06e78823          	sb	a4,112(a5)
     50c:	00008067          	ret
     510:	00100793          	li	a5,1
     514:	02f50663          	beq	a0,a5,540 <set_displays.constprop.3+0x54>
     518:	00200793          	li	a5,2
     51c:	04f51263          	bne	a0,a5,560 <set_displays.constprop.3+0x74>
     520:	040007b7          	lui	a5,0x4000
     524:	fa400713          	li	a4,-92
     528:	06e78823          	sb	a4,112(a5) # 4000070 <_stack_end+0x3efeb88>
     52c:	040007b7          	lui	a5,0x4000
     530:	0707c703          	lbu	a4,112(a5) # 4000070 <_stack_end+0x3efeb88>
     534:	08074713          	xori	a4,a4,128
     538:	06e78823          	sb	a4,112(a5)
     53c:	00008067          	ret
     540:	040007b7          	lui	a5,0x4000
     544:	ff900713          	li	a4,-7
     548:	06e78823          	sb	a4,112(a5) # 4000070 <_stack_end+0x3efeb88>
     54c:	040007b7          	lui	a5,0x4000
     550:	0707c703          	lbu	a4,112(a5) # 4000070 <_stack_end+0x3efeb88>
     554:	08074713          	xori	a4,a4,128
     558:	06e78823          	sb	a4,112(a5)
     55c:	00008067          	ret
     560:	00300793          	li	a5,3
     564:	00f51a63          	bne	a0,a5,578 <set_displays.constprop.3+0x8c>
     568:	040007b7          	lui	a5,0x4000
     56c:	fb000713          	li	a4,-80
     570:	06e78823          	sb	a4,112(a5) # 4000070 <_stack_end+0x3efeb88>
     574:	f89ff06f          	j	4fc <set_displays.constprop.3+0x10>
     578:	00400793          	li	a5,4
     57c:	00f50e63          	beq	a0,a5,598 <set_displays.constprop.3+0xac>
     580:	00500793          	li	a5,5
     584:	02f51a63          	bne	a0,a5,5b8 <set_displays.constprop.3+0xcc>
     588:	040007b7          	lui	a5,0x4000
     58c:	f9200713          	li	a4,-110
     590:	06e78823          	sb	a4,112(a5) # 4000070 <_stack_end+0x3efeb88>
     594:	f69ff06f          	j	4fc <set_displays.constprop.3+0x10>
     598:	040007b7          	lui	a5,0x4000
     59c:	f9900713          	li	a4,-103
     5a0:	06e78823          	sb	a4,112(a5) # 4000070 <_stack_end+0x3efeb88>
     5a4:	040007b7          	lui	a5,0x4000
     5a8:	0707c703          	lbu	a4,112(a5) # 4000070 <_stack_end+0x3efeb88>
     5ac:	08074713          	xori	a4,a4,128
     5b0:	06e78823          	sb	a4,112(a5)
     5b4:	00008067          	ret
     5b8:	00600793          	li	a5,6
     5bc:	00f51a63          	bne	a0,a5,5d0 <set_displays.constprop.3+0xe4>
     5c0:	040007b7          	lui	a5,0x4000
     5c4:	f8200713          	li	a4,-126
     5c8:	06e78823          	sb	a4,112(a5) # 4000070 <_stack_end+0x3efeb88>
     5cc:	f31ff06f          	j	4fc <set_displays.constprop.3+0x10>
     5d0:	00700793          	li	a5,7
     5d4:	02f50663          	beq	a0,a5,600 <set_displays.constprop.3+0x114>
     5d8:	00800793          	li	a5,8
     5dc:	04f51263          	bne	a0,a5,620 <set_displays.constprop.3+0x134>
     5e0:	040007b7          	lui	a5,0x4000
     5e4:	f8000713          	li	a4,-128
     5e8:	06e78823          	sb	a4,112(a5) # 4000070 <_stack_end+0x3efeb88>
     5ec:	040007b7          	lui	a5,0x4000
     5f0:	0707c703          	lbu	a4,112(a5) # 4000070 <_stack_end+0x3efeb88>
     5f4:	08074713          	xori	a4,a4,128
     5f8:	06e78823          	sb	a4,112(a5)
     5fc:	00008067          	ret
     600:	040007b7          	lui	a5,0x4000
     604:	ff800713          	li	a4,-8
     608:	06e78823          	sb	a4,112(a5) # 4000070 <_stack_end+0x3efeb88>
     60c:	040007b7          	lui	a5,0x4000
     610:	0707c703          	lbu	a4,112(a5) # 4000070 <_stack_end+0x3efeb88>
     614:	08074713          	xori	a4,a4,128
     618:	06e78823          	sb	a4,112(a5)
     61c:	00008067          	ret
     620:	00900793          	li	a5,9
     624:	00f51a63          	bne	a0,a5,638 <set_displays.constprop.3+0x14c>
     628:	040007b7          	lui	a5,0x4000
     62c:	f9000713          	li	a4,-112
     630:	06e78823          	sb	a4,112(a5) # 4000070 <_stack_end+0x3efeb88>
     634:	ec9ff06f          	j	4fc <set_displays.constprop.3+0x10>
     638:	00a00793          	li	a5,10
     63c:	ecf510e3          	bne	a0,a5,4fc <set_displays.constprop.3+0x10>
     640:	040007b7          	lui	a5,0x4000
     644:	fbf00713          	li	a4,-65
     648:	06e78823          	sb	a4,112(a5) # 4000070 <_stack_end+0x3efeb88>
     64c:	eb1ff06f          	j	4fc <set_displays.constprop.3+0x10>

00000650 <set_displays.constprop.5>:
     650:	00051a63          	bnez	a0,664 <set_displays.constprop.5+0x14>
     654:	040007b7          	lui	a5,0x4000
     658:	fc000713          	li	a4,-64
     65c:	04e78823          	sb	a4,80(a5) # 4000050 <_stack_end+0x3efeb68>
     660:	00008067          	ret
     664:	00100793          	li	a5,1
     668:	00f50e63          	beq	a0,a5,684 <set_displays.constprop.5+0x34>
     66c:	00200793          	li	a5,2
     670:	02f51263          	bne	a0,a5,694 <set_displays.constprop.5+0x44>
     674:	040007b7          	lui	a5,0x4000
     678:	fa400713          	li	a4,-92
     67c:	04e78823          	sb	a4,80(a5) # 4000050 <_stack_end+0x3efeb68>
     680:	00008067          	ret
     684:	040007b7          	lui	a5,0x4000
     688:	ff900713          	li	a4,-7
     68c:	04e78823          	sb	a4,80(a5) # 4000050 <_stack_end+0x3efeb68>
     690:	00008067          	ret
     694:	00300793          	li	a5,3
     698:	00f51a63          	bne	a0,a5,6ac <set_displays.constprop.5+0x5c>
     69c:	040007b7          	lui	a5,0x4000
     6a0:	fb000713          	li	a4,-80
     6a4:	04e78823          	sb	a4,80(a5) # 4000050 <_stack_end+0x3efeb68>
     6a8:	00008067          	ret
     6ac:	00400793          	li	a5,4
     6b0:	00f50e63          	beq	a0,a5,6cc <set_displays.constprop.5+0x7c>
     6b4:	00500793          	li	a5,5
     6b8:	02f51263          	bne	a0,a5,6dc <set_displays.constprop.5+0x8c>
     6bc:	040007b7          	lui	a5,0x4000
     6c0:	f9200713          	li	a4,-110
     6c4:	04e78823          	sb	a4,80(a5) # 4000050 <_stack_end+0x3efeb68>
     6c8:	00008067          	ret
     6cc:	040007b7          	lui	a5,0x4000
     6d0:	f9900713          	li	a4,-103
     6d4:	04e78823          	sb	a4,80(a5) # 4000050 <_stack_end+0x3efeb68>
     6d8:	00008067          	ret
     6dc:	00600793          	li	a5,6
     6e0:	00f51a63          	bne	a0,a5,6f4 <set_displays.constprop.5+0xa4>
     6e4:	040007b7          	lui	a5,0x4000
     6e8:	f8200713          	li	a4,-126
     6ec:	04e78823          	sb	a4,80(a5) # 4000050 <_stack_end+0x3efeb68>
     6f0:	00008067          	ret
     6f4:	00700793          	li	a5,7
     6f8:	00f50e63          	beq	a0,a5,714 <set_displays.constprop.5+0xc4>
     6fc:	00800793          	li	a5,8
     700:	02f51263          	bne	a0,a5,724 <set_displays.constprop.5+0xd4>
     704:	040007b7          	lui	a5,0x4000
     708:	f8000713          	li	a4,-128
     70c:	04e78823          	sb	a4,80(a5) # 4000050 <_stack_end+0x3efeb68>
     710:	00008067          	ret
     714:	040007b7          	lui	a5,0x4000
     718:	ff800713          	li	a4,-8
     71c:	04e78823          	sb	a4,80(a5) # 4000050 <_stack_end+0x3efeb68>
     720:	00008067          	ret
     724:	00900793          	li	a5,9
     728:	00f51a63          	bne	a0,a5,73c <set_displays.constprop.5+0xec>
     72c:	040007b7          	lui	a5,0x4000
     730:	f9000713          	li	a4,-112
     734:	04e78823          	sb	a4,80(a5) # 4000050 <_stack_end+0x3efeb68>
     738:	00008067          	ret
     73c:	00a00793          	li	a5,10
     740:	00f51863          	bne	a0,a5,750 <set_displays.constprop.5+0x100>
     744:	040007b7          	lui	a5,0x4000
     748:	fbf00713          	li	a4,-65
     74c:	04e78823          	sb	a4,80(a5) # 4000050 <_stack_end+0x3efeb68>
     750:	00008067          	ret

00000754 <set_leds>:
     754:	040007b7          	lui	a5,0x4000
     758:	00a7a023          	sw	a0,0(a5) # 4000000 <_stack_end+0x3efeb18>
     75c:	00008067          	ret

00000760 <sec_leds>:
     760:	04a05863          	blez	a0,7b0 <sec_leds+0x50>
     764:	ff010113          	addi	sp,sp,-16
     768:	00812423          	sw	s0,8(sp)
     76c:	00912223          	sw	s1,4(sp)
     770:	01212023          	sw	s2,0(sp)
     774:	00112623          	sw	ra,12(sp)
     778:	00050493          	mv	s1,a0
     77c:	00000413          	li	s0,0
     780:	04000937          	lui	s2,0x4000
     784:	44c00513          	li	a0,1100
     788:	740000ef          	jal	ec8 <delay>
     78c:	00892023          	sw	s0,0(s2) # 4000000 <_stack_end+0x3efeb18>
     790:	00140413          	addi	s0,s0,1
     794:	fe8498e3          	bne	s1,s0,784 <sec_leds+0x24>
     798:	00c12083          	lw	ra,12(sp)
     79c:	00812403          	lw	s0,8(sp)
     7a0:	00412483          	lw	s1,4(sp)
     7a4:	00012903          	lw	s2,0(sp)
     7a8:	01010113          	addi	sp,sp,16
     7ac:	00008067          	ret
     7b0:	00008067          	ret

000007b4 <reset_disp>:
     7b4:	fff00713          	li	a4,-1
     7b8:	040006b7          	lui	a3,0x4000
     7bc:	040007b7          	lui	a5,0x4000
     7c0:	04e68823          	sb	a4,80(a3) # 4000050 <_stack_end+0x3efeb68>
     7c4:	06e78023          	sb	a4,96(a5) # 4000060 <_stack_end+0x3efeb78>
     7c8:	06e78823          	sb	a4,112(a5)
     7cc:	08e78023          	sb	a4,128(a5)
     7d0:	08e78823          	sb	a4,144(a5)
     7d4:	0ae78023          	sb	a4,160(a5)
     7d8:	00008067          	ret

000007dc <set_displays>:
     7dc:	00100793          	li	a5,1
     7e0:	06a7d663          	bge	a5,a0,84c <__heap_size+0x4c>
     7e4:	ffe50793          	addi	a5,a0,-2
     7e8:	04000737          	lui	a4,0x4000
     7ec:	00479793          	slli	a5,a5,0x4
     7f0:	06070713          	addi	a4,a4,96 # 4000060 <_stack_end+0x3efeb78>
     7f4:	00e787b3          	add	a5,a5,a4
     7f8:	02059663          	bnez	a1,824 <__heap_size+0x24>
     7fc:	fc000713          	li	a4,-64
     800:	00e78023          	sb	a4,0(a5)
     804:	ffd50513          	addi	a0,a0,-3
     808:	ffd57513          	andi	a0,a0,-3
     80c:	00050463          	beqz	a0,814 <__heap_size+0x14>
     810:	00008067          	ret
     814:	0007c703          	lbu	a4,0(a5)
     818:	08074713          	xori	a4,a4,128
     81c:	00e78023          	sb	a4,0(a5)
     820:	00008067          	ret
     824:	00100713          	li	a4,1
     828:	00e58c63          	beq	a1,a4,840 <__heap_size+0x40>
     82c:	00200713          	li	a4,2
     830:	02e59463          	bne	a1,a4,858 <__heap_size+0x58>
     834:	fa400713          	li	a4,-92
     838:	00e78023          	sb	a4,0(a5)
     83c:	fc9ff06f          	j	804 <__heap_size+0x4>
     840:	ff900713          	li	a4,-7
     844:	00e78023          	sb	a4,0(a5)
     848:	fbdff06f          	j	804 <__heap_size+0x4>
     84c:	040007b7          	lui	a5,0x4000
     850:	05078793          	addi	a5,a5,80 # 4000050 <_stack_end+0x3efeb68>
     854:	fa5ff06f          	j	7f8 <set_displays+0x1c>
     858:	00300713          	li	a4,3
     85c:	00e59863          	bne	a1,a4,86c <__heap_size+0x6c>
     860:	fb000713          	li	a4,-80
     864:	00e78023          	sb	a4,0(a5)
     868:	f9dff06f          	j	804 <__heap_size+0x4>
     86c:	00400713          	li	a4,4
     870:	02e58663          	beq	a1,a4,89c <__heap_size+0x9c>
     874:	00500713          	li	a4,5
     878:	00e58c63          	beq	a1,a4,890 <__heap_size+0x90>
     87c:	00600713          	li	a4,6
     880:	02e59463          	bne	a1,a4,8a8 <__heap_size+0xa8>
     884:	f8200713          	li	a4,-126
     888:	00e78023          	sb	a4,0(a5)
     88c:	f79ff06f          	j	804 <__heap_size+0x4>
     890:	f9200713          	li	a4,-110
     894:	00e78023          	sb	a4,0(a5)
     898:	f6dff06f          	j	804 <__heap_size+0x4>
     89c:	f9900713          	li	a4,-103
     8a0:	00e78023          	sb	a4,0(a5)
     8a4:	f61ff06f          	j	804 <__heap_size+0x4>
     8a8:	00700713          	li	a4,7
     8ac:	00e59863          	bne	a1,a4,8bc <__heap_size+0xbc>
     8b0:	ff800713          	li	a4,-8
     8b4:	00e78023          	sb	a4,0(a5)
     8b8:	f4dff06f          	j	804 <__heap_size+0x4>
     8bc:	00800713          	li	a4,8
     8c0:	00e58c63          	beq	a1,a4,8d8 <__heap_size+0xd8>
     8c4:	00900713          	li	a4,9
     8c8:	00e59e63          	bne	a1,a4,8e4 <__heap_size+0xe4>
     8cc:	f9000713          	li	a4,-112
     8d0:	00e78023          	sb	a4,0(a5)
     8d4:	f31ff06f          	j	804 <__heap_size+0x4>
     8d8:	f8000713          	li	a4,-128
     8dc:	00e78023          	sb	a4,0(a5)
     8e0:	f25ff06f          	j	804 <__heap_size+0x4>
     8e4:	00a00713          	li	a4,10
     8e8:	f0e59ee3          	bne	a1,a4,804 <__heap_size+0x4>
     8ec:	fbf00713          	li	a4,-65
     8f0:	00e78023          	sb	a4,0(a5)
     8f4:	f11ff06f          	j	804 <__heap_size+0x4>

000008f8 <clock_counter>:
     8f8:	000016b7          	lui	a3,0x1
     8fc:	4546a783          	lw	a5,1108(a3) # 1454 <sec_counter>
     900:	00001637          	lui	a2,0x1
     904:	03b00593          	li	a1,59
     908:	00178793          	addi	a5,a5,1
     90c:	44f6aa23          	sw	a5,1108(a3)
     910:	45062703          	lw	a4,1104(a2) # 1450 <min_counter>
     914:	00f5d863          	bge	a1,a5,924 <clock_counter+0x2c>
     918:	00170713          	addi	a4,a4,1
     91c:	44e62823          	sw	a4,1104(a2)
     920:	4406aa23          	sw	zero,1108(a3)
     924:	03b00793          	li	a5,59
     928:	00e7dc63          	bge	a5,a4,940 <clock_counter+0x48>
     92c:	00001737          	lui	a4,0x1
     930:	44c72783          	lw	a5,1100(a4) # 144c <hr_counter>
     934:	44062823          	sw	zero,1104(a2)
     938:	00178793          	addi	a5,a5,1
     93c:	44f72623          	sw	a5,1100(a4)
     940:	00008067          	ret

00000944 <display_time_tens>:
     944:	000017b7          	lui	a5,0x1
     948:	ff010113          	addi	sp,sp,-16
     94c:	4587a503          	lw	a0,1112(a5) # 1458 <periods>
     950:	000017b7          	lui	a5,0x1
     954:	01212023          	sw	s2,0(sp)
     958:	4547a903          	lw	s2,1108(a5) # 1454 <sec_counter>
     95c:	000017b7          	lui	a5,0x1
     960:	00112623          	sw	ra,12(sp)
     964:	00812423          	sw	s0,8(sp)
     968:	00912223          	sw	s1,4(sp)
     96c:	00a00413          	li	s0,10
     970:	4507a483          	lw	s1,1104(a5) # 1450 <min_counter>
     974:	cddff0ef          	jal	650 <set_displays.constprop.5>
     978:	02896533          	rem	a0,s2,s0
     97c:	040007b7          	lui	a5,0x4000
     980:	fc000713          	li	a4,-64
     984:	06e78023          	sb	a4,96(a5) # 4000060 <_stack_end+0x3efeb78>
     988:	b65ff0ef          	jal	4ec <set_displays.constprop.3>
     98c:	02894533          	div	a0,s2,s0
     990:	a59ff0ef          	jal	3e8 <set_displays.constprop.2>
     994:	0284e533          	rem	a0,s1,s0
     998:	8edff0ef          	jal	284 <set_displays.constprop.1>
     99c:	0284c533          	div	a0,s1,s0
     9a0:	00812403          	lw	s0,8(sp)
     9a4:	00c12083          	lw	ra,12(sp)
     9a8:	00412483          	lw	s1,4(sp)
     9ac:	00012903          	lw	s2,0(sp)
     9b0:	01010113          	addi	sp,sp,16
     9b4:	fccff06f          	j	180 <set_displays.constprop.0>

000009b8 <display_time>:
     9b8:	fe010113          	addi	sp,sp,-32
     9bc:	000017b7          	lui	a5,0x1
     9c0:	00812c23          	sw	s0,24(sp)
     9c4:	4547a403          	lw	s0,1108(a5) # 1454 <sec_counter>
     9c8:	00a00793          	li	a5,10
     9cc:	00001737          	lui	a4,0x1
     9d0:	02f46533          	rem	a0,s0,a5
     9d4:	45072683          	lw	a3,1104(a4) # 1450 <min_counter>
     9d8:	00001737          	lui	a4,0x1
     9dc:	44c72703          	lw	a4,1100(a4) # 144c <hr_counter>
     9e0:	00912a23          	sw	s1,20(sp)
     9e4:	01212823          	sw	s2,16(sp)
     9e8:	01312623          	sw	s3,12(sp)
     9ec:	01412423          	sw	s4,8(sp)
     9f0:	00112e23          	sw	ra,28(sp)
     9f4:	02f44433          	div	s0,s0,a5
     9f8:	02f6ea33          	rem	s4,a3,a5
     9fc:	02f6c933          	div	s2,a3,a5
     a00:	02f769b3          	rem	s3,a4,a5
     a04:	02f744b3          	div	s1,a4,a5
     a08:	c49ff0ef          	jal	650 <set_displays.constprop.5>
     a0c:	04041663          	bnez	s0,a58 <display_time+0xa0>
     a10:	040007b7          	lui	a5,0x4000
     a14:	fc000713          	li	a4,-64
     a18:	06e78023          	sb	a4,96(a5) # 4000060 <_stack_end+0x3efeb78>
     a1c:	000a0513          	mv	a0,s4
     a20:	acdff0ef          	jal	4ec <set_displays.constprop.3>
     a24:	00090513          	mv	a0,s2
     a28:	9c1ff0ef          	jal	3e8 <set_displays.constprop.2>
     a2c:	00098513          	mv	a0,s3
     a30:	855ff0ef          	jal	284 <set_displays.constprop.1>
     a34:	01812403          	lw	s0,24(sp)
     a38:	01c12083          	lw	ra,28(sp)
     a3c:	01012903          	lw	s2,16(sp)
     a40:	00c12983          	lw	s3,12(sp)
     a44:	00812a03          	lw	s4,8(sp)
     a48:	00048513          	mv	a0,s1
     a4c:	01412483          	lw	s1,20(sp)
     a50:	02010113          	addi	sp,sp,32
     a54:	f2cff06f          	j	180 <set_displays.constprop.0>
     a58:	00100793          	li	a5,1
     a5c:	00f40e63          	beq	s0,a5,a78 <display_time+0xc0>
     a60:	00200793          	li	a5,2
     a64:	02f41263          	bne	s0,a5,a88 <display_time+0xd0>
     a68:	040007b7          	lui	a5,0x4000
     a6c:	fa400713          	li	a4,-92
     a70:	06e78023          	sb	a4,96(a5) # 4000060 <_stack_end+0x3efeb78>
     a74:	fa9ff06f          	j	a1c <display_time+0x64>
     a78:	040007b7          	lui	a5,0x4000
     a7c:	ff900713          	li	a4,-7
     a80:	06e78023          	sb	a4,96(a5) # 4000060 <_stack_end+0x3efeb78>
     a84:	f99ff06f          	j	a1c <display_time+0x64>
     a88:	00300793          	li	a5,3
     a8c:	00f41a63          	bne	s0,a5,aa0 <display_time+0xe8>
     a90:	040007b7          	lui	a5,0x4000
     a94:	fb000713          	li	a4,-80
     a98:	06e78023          	sb	a4,96(a5) # 4000060 <_stack_end+0x3efeb78>
     a9c:	f81ff06f          	j	a1c <display_time+0x64>
     aa0:	00400793          	li	a5,4
     aa4:	00f40e63          	beq	s0,a5,ac0 <display_time+0x108>
     aa8:	00500793          	li	a5,5
     aac:	02f41263          	bne	s0,a5,ad0 <display_time+0x118>
     ab0:	040007b7          	lui	a5,0x4000
     ab4:	f9200713          	li	a4,-110
     ab8:	06e78023          	sb	a4,96(a5) # 4000060 <_stack_end+0x3efeb78>
     abc:	f61ff06f          	j	a1c <display_time+0x64>
     ac0:	040007b7          	lui	a5,0x4000
     ac4:	f9900713          	li	a4,-103
     ac8:	06e78023          	sb	a4,96(a5) # 4000060 <_stack_end+0x3efeb78>
     acc:	f51ff06f          	j	a1c <display_time+0x64>
     ad0:	00600793          	li	a5,6
     ad4:	00f41a63          	bne	s0,a5,ae8 <display_time+0x130>
     ad8:	040007b7          	lui	a5,0x4000
     adc:	f8200713          	li	a4,-126
     ae0:	06e78023          	sb	a4,96(a5) # 4000060 <_stack_end+0x3efeb78>
     ae4:	f39ff06f          	j	a1c <display_time+0x64>
     ae8:	00700793          	li	a5,7
     aec:	00f40e63          	beq	s0,a5,b08 <display_time+0x150>
     af0:	00800793          	li	a5,8
     af4:	02f41263          	bne	s0,a5,b18 <display_time+0x160>
     af8:	040007b7          	lui	a5,0x4000
     afc:	f8000713          	li	a4,-128
     b00:	06e78023          	sb	a4,96(a5) # 4000060 <_stack_end+0x3efeb78>
     b04:	f19ff06f          	j	a1c <display_time+0x64>
     b08:	040007b7          	lui	a5,0x4000
     b0c:	ff800713          	li	a4,-8
     b10:	06e78023          	sb	a4,96(a5) # 4000060 <_stack_end+0x3efeb78>
     b14:	f09ff06f          	j	a1c <display_time+0x64>
     b18:	00900793          	li	a5,9
     b1c:	00f41a63          	bne	s0,a5,b30 <display_time+0x178>
     b20:	040007b7          	lui	a5,0x4000
     b24:	f9000713          	li	a4,-112
     b28:	06e78023          	sb	a4,96(a5) # 4000060 <_stack_end+0x3efeb78>
     b2c:	ef1ff06f          	j	a1c <display_time+0x64>
     b30:	00a00793          	li	a5,10
     b34:	eef414e3          	bne	s0,a5,a1c <display_time+0x64>
     b38:	040007b7          	lui	a5,0x4000
     b3c:	fbf00713          	li	a4,-65
     b40:	06e78023          	sb	a4,96(a5) # 4000060 <_stack_end+0x3efeb78>
     b44:	ed9ff06f          	j	a1c <display_time+0x64>

00000b48 <get_sw>:
     b48:	040007b7          	lui	a5,0x4000
     b4c:	0107a503          	lw	a0,16(a5) # 4000010 <_stack_end+0x3efeb28>
     b50:	00008067          	ret

00000b54 <get_btn>:
     b54:	040007b7          	lui	a5,0x4000
     b58:	0d07a503          	lw	a0,208(a5) # 40000d0 <_stack_end+0x3efebe8>
     b5c:	00157513          	andi	a0,a0,1
     b60:	00008067          	ret

00000b64 <ledFun>:
     b64:	00001737          	lui	a4,0x1
     b68:	43072783          	lw	a5,1072(a4) # 1430 <l>
     b6c:	040006b7          	lui	a3,0x4000
     b70:	00001637          	lui	a2,0x1
     b74:	00f6a023          	sw	a5,0(a3) # 4000000 <_stack_end+0x3efeb18>
     b78:	44862683          	lw	a3,1096(a2) # 1448 <decrease>
     b7c:	02069063          	bnez	a3,b9c <ledFun+0x38>
     b80:	00179793          	slli	a5,a5,0x1
     b84:	42f72823          	sw	a5,1072(a4)
     b88:	1ff00713          	li	a4,511
     b8c:	02f75863          	bge	a4,a5,bbc <ledFun+0x58>
     b90:	00100793          	li	a5,1
     b94:	44f62423          	sw	a5,1096(a2)
     b98:	00008067          	ret
     b9c:	01f7d693          	srli	a3,a5,0x1f
     ba0:	00f686b3          	add	a3,a3,a5
     ba4:	4016d693          	srai	a3,a3,0x1
     ba8:	42d72823          	sw	a3,1072(a4)
     bac:	3ff00713          	li	a4,1023
     bb0:	fef740e3          	blt	a4,a5,b90 <ledFun+0x2c>
     bb4:	00300713          	li	a4,3
     bb8:	00f75463          	bge	a4,a5,bc0 <ledFun+0x5c>
     bbc:	00008067          	ret
     bc0:	44062423          	sw	zero,1096(a2)
     bc4:	00008067          	ret

00000bc8 <handle_interrupt>:
     bc8:	01057513          	andi	a0,a0,16
     bcc:	00051463          	bnez	a0,bd4 <handle_interrupt+0xc>
     bd0:	00008067          	ret
     bd4:	fe010113          	addi	sp,sp,-32
     bd8:	00912a23          	sw	s1,20(sp)
     bdc:	000014b7          	lui	s1,0x1
     be0:	4584a503          	lw	a0,1112(s1) # 1458 <periods>
     be4:	01412423          	sw	s4,8(sp)
     be8:	00001a37          	lui	s4,0x1
     bec:	01312623          	sw	s3,12(sp)
     bf0:	454a2983          	lw	s3,1108(s4) # 1454 <sec_counter>
     bf4:	01512223          	sw	s5,4(sp)
     bf8:	00001ab7          	lui	s5,0x1
     bfc:	00112e23          	sw	ra,28(sp)
     c00:	00812c23          	sw	s0,24(sp)
     c04:	01212823          	sw	s2,16(sp)
     c08:	00a00413          	li	s0,10
     c0c:	450aa903          	lw	s2,1104(s5) # 1450 <min_counter>
     c10:	a41ff0ef          	jal	650 <set_displays.constprop.5>
     c14:	0289e533          	rem	a0,s3,s0
     c18:	040007b7          	lui	a5,0x4000
     c1c:	fc000713          	li	a4,-64
     c20:	06e78023          	sb	a4,96(a5) # 4000060 <_stack_end+0x3efeb78>
     c24:	8c9ff0ef          	jal	4ec <set_displays.constprop.3>
     c28:	0289c533          	div	a0,s3,s0
     c2c:	fbcff0ef          	jal	3e8 <set_displays.constprop.2>
     c30:	02896533          	rem	a0,s2,s0
     c34:	e50ff0ef          	jal	284 <set_displays.constprop.1>
     c38:	02894533          	div	a0,s2,s0
     c3c:	d44ff0ef          	jal	180 <set_displays.constprop.0>
     c40:	000017b7          	lui	a5,0x1
     c44:	4407a683          	lw	a3,1088(a5) # 1440 <TMR1_SR>
     c48:	4584a783          	lw	a5,1112(s1)
     c4c:	0006d703          	lhu	a4,0(a3)
     c50:	00178793          	addi	a5,a5,1
     c54:	00e77713          	andi	a4,a4,14
     c58:	00e69023          	sh	a4,0(a3)
     c5c:	02878663          	beq	a5,s0,c88 <handle_interrupt+0xc0>
     c60:	01c12083          	lw	ra,28(sp)
     c64:	01812403          	lw	s0,24(sp)
     c68:	44f4ac23          	sw	a5,1112(s1)
     c6c:	01012903          	lw	s2,16(sp)
     c70:	01412483          	lw	s1,20(sp)
     c74:	00c12983          	lw	s3,12(sp)
     c78:	00812a03          	lw	s4,8(sp)
     c7c:	00412a83          	lw	s5,4(sp)
     c80:	02010113          	addi	sp,sp,32
     c84:	00008067          	ret
     c88:	454a2783          	lw	a5,1108(s4)
     c8c:	4404ac23          	sw	zero,1112(s1)
     c90:	03b00693          	li	a3,59
     c94:	00178793          	addi	a5,a5,1
     c98:	44fa2a23          	sw	a5,1108(s4)
     c9c:	450aa703          	lw	a4,1104(s5)
     ca0:	00f6d863          	bge	a3,a5,cb0 <handle_interrupt+0xe8>
     ca4:	00170713          	addi	a4,a4,1
     ca8:	44eaa823          	sw	a4,1104(s5)
     cac:	440a2a23          	sw	zero,1108(s4)
     cb0:	03b00793          	li	a5,59
     cb4:	00e7dc63          	bge	a5,a4,ccc <handle_interrupt+0x104>
     cb8:	00001737          	lui	a4,0x1
     cbc:	44c72783          	lw	a5,1100(a4) # 144c <hr_counter>
     cc0:	440aa823          	sw	zero,1104(s5)
     cc4:	00178793          	addi	a5,a5,1
     cc8:	44f72623          	sw	a5,1100(a4)
     ccc:	01812403          	lw	s0,24(sp)
     cd0:	01c12083          	lw	ra,28(sp)
     cd4:	01412483          	lw	s1,20(sp)
     cd8:	01012903          	lw	s2,16(sp)
     cdc:	00c12983          	lw	s3,12(sp)
     ce0:	00812a03          	lw	s4,8(sp)
     ce4:	00412a83          	lw	s5,4(sp)
     ce8:	00001537          	lui	a0,0x1
     cec:	45c50513          	addi	a0,a0,1116 # 145c <mytime>
     cf0:	02010113          	addi	sp,sp,32
     cf4:	1540006f          	j	e48 <tick>

00000cf8 <labinit>:
     cf8:	000017b7          	lui	a5,0x1
     cfc:	4387a603          	lw	a2,1080(a5) # 1438 <TMR1_PERLO>
     d00:	000017b7          	lui	a5,0x1
     d04:	4347a683          	lw	a3,1076(a5) # 1434 <TMR1_PERHI>
     d08:	00001737          	lui	a4,0x1
     d0c:	ffffc7b7          	lui	a5,0xffffc
     d10:	43c72703          	lw	a4,1084(a4) # 143c <TMR1_CR>
     d14:	6bf78793          	addi	a5,a5,1727 # ffffc6bf <_stack_end+0xffefb1d7>
     d18:	00f61023          	sh	a5,0(a2)
     d1c:	02d00793          	li	a5,45
     d20:	00f69023          	sh	a5,0(a3)
     d24:	00700793          	li	a5,7
     d28:	00f71023          	sh	a5,0(a4)
     d2c:	c48ff06f          	j	174 <enable_interrupts>

00000d30 <main>:
     d30:	000017b7          	lui	a5,0x1
     d34:	4387a603          	lw	a2,1080(a5) # 1438 <TMR1_PERLO>
     d38:	000017b7          	lui	a5,0x1
     d3c:	4347a683          	lw	a3,1076(a5) # 1434 <TMR1_PERHI>
     d40:	ff010113          	addi	sp,sp,-16
     d44:	ffffc7b7          	lui	a5,0xffffc
     d48:	00001737          	lui	a4,0x1
     d4c:	43c72703          	lw	a4,1084(a4) # 143c <TMR1_CR>
     d50:	00112623          	sw	ra,12(sp)
     d54:	6bf78793          	addi	a5,a5,1727 # ffffc6bf <_stack_end+0xffefb1d7>
     d58:	00f61023          	sh	a5,0(a2)
     d5c:	02d00793          	li	a5,45
     d60:	00f69023          	sh	a5,0(a3)
     d64:	00700793          	li	a5,7
     d68:	00f71023          	sh	a5,0(a4)
     d6c:	c08ff0ef          	jal	174 <enable_interrupts>
     d70:	fff00713          	li	a4,-1
     d74:	040006b7          	lui	a3,0x4000
     d78:	04e68823          	sb	a4,80(a3) # 4000050 <_stack_end+0x3efeb68>
     d7c:	040007b7          	lui	a5,0x4000
     d80:	06e78023          	sb	a4,96(a5) # 4000060 <_stack_end+0x3efeb78>
     d84:	06e78823          	sb	a4,112(a5)
     d88:	08e78023          	sb	a4,128(a5)
     d8c:	08e78823          	sb	a4,144(a5)
     d90:	0ae78023          	sb	a4,160(a5)
     d94:	000016b7          	lui	a3,0x1
     d98:	00001537          	lui	a0,0x1
     d9c:	04000837          	lui	a6,0x4000
     da0:	3ff00e13          	li	t3,1023
     da4:	00300e93          	li	t4,3
     da8:	00100313          	li	t1,1
     dac:	1ff00893          	li	a7,511
     db0:	4306a783          	lw	a5,1072(a3) # 1430 <l>
     db4:	00f82023          	sw	a5,0(a6) # 4000000 <_stack_end+0x3efeb18>
     db8:	44852583          	lw	a1,1096(a0) # 1448 <decrease>
     dbc:	01f7d713          	srli	a4,a5,0x1f
     dc0:	00f70733          	add	a4,a4,a5
     dc4:	40175713          	srai	a4,a4,0x1
     dc8:	00179613          	slli	a2,a5,0x1
     dcc:	00059a63          	bnez	a1,de0 <main+0xb0>
     dd0:	42c6a823          	sw	a2,1072(a3)
     dd4:	fcc8dee3          	bge	a7,a2,db0 <main+0x80>
     dd8:	44652423          	sw	t1,1096(a0)
     ddc:	fd5ff06f          	j	db0 <main+0x80>
     de0:	42e6a823          	sw	a4,1072(a3)
     de4:	fefe4ae3          	blt	t3,a5,dd8 <main+0xa8>
     de8:	fcfec4e3          	blt	t4,a5,db0 <main+0x80>
     dec:	44052423          	sw	zero,1096(a0)
     df0:	fc1ff06f          	j	db0 <main+0x80>

00000df4 <display_string>:
     df4:	00400893          	li	a7,4
     df8:	00000073          	ecall
     dfc:	00a00513          	li	a0,10
     e00:	00b00893          	li	a7,11
     e04:	00000073          	ecall
     e08:	00008067          	ret

00000e0c <timetemplate>:
     e0c:	00000517          	auipc	a0,0x0
     e10:	60450513          	addi	a0,a0,1540 # 1410 <timstr>
     e14:	fe1ff0ef          	jal	df4 <display_string>
     e18:	3e800513          	li	a0,1000
     e1c:	0ac000ef          	jal	ec8 <delay>
     e20:	00000517          	auipc	a0,0x0
     e24:	5ec50513          	addi	a0,a0,1516 # 140c <mytime>
     e28:	020000ef          	jal	e48 <tick>
     e2c:	00000517          	auipc	a0,0x0
     e30:	5e450513          	addi	a0,a0,1508 # 1410 <timstr>
     e34:	00000297          	auipc	t0,0x0
     e38:	5d828293          	addi	t0,t0,1496 # 140c <mytime>
     e3c:	0002a583          	lw	a1,0(t0)
     e40:	0c0000ef          	jal	f00 <time2string>
     e44:	fc9ff06f          	j	e0c <timetemplate>

00000e48 <tick>:
     e48:	00052283          	lw	t0,0(a0)
     e4c:	00128293          	addi	t0,t0,1
     e50:	00f2f313          	andi	t1,t0,15
     e54:	00a33393          	sltiu	t2,t1,10
     e58:	06039063          	bnez	t2,eb8 <tiend>
     e5c:	00628293          	addi	t0,t0,6
     e60:	0f02f313          	andi	t1,t0,240
     e64:	06033393          	sltiu	t2,t1,96
     e68:	04039863          	bnez	t2,eb8 <tiend>
     e6c:	0a028293          	addi	t0,t0,160
     e70:	00f00e13          	li	t3,15
     e74:	008e1e13          	slli	t3,t3,0x8
     e78:	01c2f333          	and	t1,t0,t3
     e7c:	00a00e13          	li	t3,10
     e80:	008e1e13          	slli	t3,t3,0x8
     e84:	01c323b3          	slt	t2,t1,t3
     e88:	02039863          	bnez	t2,eb8 <tiend>
     e8c:	60028293          	addi	t0,t0,1536
     e90:	00f00e13          	li	t3,15
     e94:	00ce1e13          	slli	t3,t3,0xc
     e98:	01c2f333          	and	t1,t0,t3
     e9c:	00600e13          	li	t3,6
     ea0:	00ce1e13          	slli	t3,t3,0xc
     ea4:	01c323b3          	slt	t2,t1,t3
     ea8:	00039863          	bnez	t2,eb8 <tiend>
     eac:	00a00e13          	li	t3,10
     eb0:	00ce1e13          	slli	t3,t3,0xc
     eb4:	01c282b3          	add	t0,t0,t3

00000eb8 <tiend>:
     eb8:	00552023          	sw	t0,0(a0)
     ebc:	00008067          	ret

00000ec0 <hex2asc>:
     ec0:	03050513          	addi	a0,a0,48
     ec4:	00008067          	ret

00000ec8 <delay>:
     ec8:	ffc10113          	addi	sp,sp,-4
     ecc:	00112023          	sw	ra,0(sp)

00000ed0 <out_loop>:
     ed0:	02a05263          	blez	a0,ef4 <done_out_loop>
     ed4:	fff50513          	addi	a0,a0,-1
     ed8:	00000293          	li	t0,0
     edc:	00002337          	lui	t1,0x2
     ee0:	70f30313          	addi	t1,t1,1807 # 270f <__global_pointer+0xae2>

00000ee4 <in_loop>:
     ee4:	00628663          	beq	t0,t1,ef0 <done_in_loop>
     ee8:	00128293          	addi	t0,t0,1
     eec:	ff9ff06f          	j	ee4 <in_loop>

00000ef0 <done_in_loop>:
     ef0:	fe1ff06f          	j	ed0 <out_loop>

00000ef4 <done_out_loop>:
     ef4:	00012083          	lw	ra,0(sp)
     ef8:	00410113          	addi	sp,sp,4
     efc:	00008067          	ret

00000f00 <time2string>:
     f00:	ffc10113          	addi	sp,sp,-4
     f04:	00112023          	sw	ra,0(sp)
     f08:	ffc10113          	addi	sp,sp,-4
     f0c:	00812023          	sw	s0,0(sp)
     f10:	00a00433          	add	s0,zero,a0
     f14:	00000293          	li	t0,0
     f18:	005402a3          	sb	t0,5(s0)
     f1c:	00f5f513          	andi	a0,a1,15
     f20:	fa1ff0ef          	jal	ec0 <hex2asc>
     f24:	00a40223          	sb	a0,4(s0)
     f28:	0045d593          	srli	a1,a1,0x4
     f2c:	00f5f513          	andi	a0,a1,15
     f30:	f91ff0ef          	jal	ec0 <hex2asc>
     f34:	00a401a3          	sb	a0,3(s0)
     f38:	0045d593          	srli	a1,a1,0x4
     f3c:	03a00293          	li	t0,58
     f40:	00540123          	sb	t0,2(s0)
     f44:	00f5f513          	andi	a0,a1,15
     f48:	f79ff0ef          	jal	ec0 <hex2asc>
     f4c:	00a400a3          	sb	a0,1(s0)
     f50:	0045d593          	srli	a1,a1,0x4
     f54:	00f5f513          	andi	a0,a1,15
     f58:	f69ff0ef          	jal	ec0 <hex2asc>
     f5c:	00a40023          	sb	a0,0(s0)
     f60:	00012403          	lw	s0,0(sp)
     f64:	00410113          	addi	sp,sp,4
     f68:	00012083          	lw	ra,0(sp)
     f6c:	00410113          	addi	sp,sp,4
     f70:	00008067          	ret

00000f74 <printc>:
     f74:	04000737          	lui	a4,0x4000
     f78:	04470713          	addi	a4,a4,68 # 4000044 <_stack_end+0x3efeb5c>
     f7c:	000106b7          	lui	a3,0x10
     f80:	00072783          	lw	a5,0(a4)
     f84:	fed7eee3          	bltu	a5,a3,f80 <printc+0xc>
     f88:	040007b7          	lui	a5,0x4000
     f8c:	04a7a023          	sw	a0,64(a5) # 4000040 <_stack_end+0x3efeb58>
     f90:	00008067          	ret

00000f94 <print>:
     f94:	00054603          	lbu	a2,0(a0)
     f98:	02060863          	beqz	a2,fc8 <print+0x34>
     f9c:	04000737          	lui	a4,0x4000
     fa0:	040005b7          	lui	a1,0x4000
     fa4:	04470713          	addi	a4,a4,68 # 4000044 <_stack_end+0x3efeb5c>
     fa8:	000106b7          	lui	a3,0x10
     fac:	04058593          	addi	a1,a1,64 # 4000040 <_stack_end+0x3efeb58>
     fb0:	00072783          	lw	a5,0(a4)
     fb4:	fed7eee3          	bltu	a5,a3,fb0 <print+0x1c>
     fb8:	00c5a023          	sw	a2,0(a1)
     fbc:	00154603          	lbu	a2,1(a0)
     fc0:	00150513          	addi	a0,a0,1
     fc4:	fe0616e3          	bnez	a2,fb0 <print+0x1c>
     fc8:	00008067          	ret

00000fcc <print_dec>:
     fcc:	3b9ad737          	lui	a4,0x3b9ad
     fd0:	040006b7          	lui	a3,0x4000
     fd4:	04000337          	lui	t1,0x4000
     fd8:	00a00593          	li	a1,10
     fdc:	00000793          	li	a5,0
     fe0:	a0070713          	addi	a4,a4,-1536 # 3b9aca00 <_stack_end+0x3b8ab518>
     fe4:	04468693          	addi	a3,a3,68 # 4000044 <_stack_end+0x3efeb5c>
     fe8:	00010637          	lui	a2,0x10
     fec:	04030313          	addi	t1,t1,64 # 4000040 <_stack_end+0x3efeb58>
     ff0:	00a00893          	li	a7,10
     ff4:	04e57063          	bgeu	a0,a4,1034 <print_dec+0x68>
     ff8:	02079e63          	bnez	a5,1034 <print_dec+0x68>
     ffc:	fff58593          	addi	a1,a1,-1
    1000:	02e57533          	remu	a0,a0,a4
    1004:	03175733          	divu	a4,a4,a7
    1008:	fe0596e3          	bnez	a1,ff4 <print_dec+0x28>
    100c:	02079263          	bnez	a5,1030 <print_dec+0x64>
    1010:	04000737          	lui	a4,0x4000
    1014:	04470713          	addi	a4,a4,68 # 4000044 <_stack_end+0x3efeb5c>
    1018:	000106b7          	lui	a3,0x10
    101c:	00072783          	lw	a5,0(a4)
    1020:	fed7eee3          	bltu	a5,a3,101c <print_dec+0x50>
    1024:	040007b7          	lui	a5,0x4000
    1028:	03000713          	li	a4,48
    102c:	04e7a023          	sw	a4,64(a5) # 4000040 <_stack_end+0x3efeb58>
    1030:	00008067          	ret
    1034:	02e55833          	divu	a6,a0,a4
    1038:	03080813          	addi	a6,a6,48
    103c:	0ff87813          	zext.b	a6,a6
    1040:	0006a783          	lw	a5,0(a3) # 10000 <__global_pointer+0xe3d3>
    1044:	fec7eee3          	bltu	a5,a2,1040 <print_dec+0x74>
    1048:	01032023          	sw	a6,0(t1)
    104c:	00100793          	li	a5,1
    1050:	fadff06f          	j	ffc <print_dec+0x30>

00001054 <print_hex32>:
    1054:	04000737          	lui	a4,0x4000
    1058:	04470713          	addi	a4,a4,68 # 4000044 <_stack_end+0x3efeb5c>
    105c:	000106b7          	lui	a3,0x10
    1060:	00072783          	lw	a5,0(a4)
    1064:	fed7eee3          	bltu	a5,a3,1060 <print_hex32+0xc>
    1068:	03000693          	li	a3,48
    106c:	040007b7          	lui	a5,0x4000
    1070:	04000737          	lui	a4,0x4000
    1074:	04d7a023          	sw	a3,64(a5) # 4000040 <_stack_end+0x3efeb58>
    1078:	04470713          	addi	a4,a4,68 # 4000044 <_stack_end+0x3efeb5c>
    107c:	000106b7          	lui	a3,0x10
    1080:	00072783          	lw	a5,0(a4)
    1084:	fed7eee3          	bltu	a5,a3,1080 <print_hex32+0x2c>
    1088:	04000837          	lui	a6,0x4000
    108c:	04080813          	addi	a6,a6,64 # 4000040 <_stack_end+0x3efeb58>
    1090:	04000737          	lui	a4,0x4000
    1094:	07800793          	li	a5,120
    1098:	00f82023          	sw	a5,0(a6)
    109c:	01c00613          	li	a2,28
    10a0:	00900313          	li	t1,9
    10a4:	04470713          	addi	a4,a4,68 # 4000044 <_stack_end+0x3efeb5c>
    10a8:	000106b7          	lui	a3,0x10
    10ac:	ffc00893          	li	a7,-4
    10b0:	00c557b3          	srl	a5,a0,a2
    10b4:	00f7f793          	andi	a5,a5,15
    10b8:	03778593          	addi	a1,a5,55
    10bc:	00f36463          	bltu	t1,a5,10c4 <print_hex32+0x70>
    10c0:	03078593          	addi	a1,a5,48
    10c4:	00072783          	lw	a5,0(a4)
    10c8:	fed7eee3          	bltu	a5,a3,10c4 <print_hex32+0x70>
    10cc:	00b82023          	sw	a1,0(a6)
    10d0:	ffc60613          	addi	a2,a2,-4 # fffc <__global_pointer+0xe3cf>
    10d4:	fd161ee3          	bne	a2,a7,10b0 <print_hex32+0x5c>
    10d8:	00008067          	ret

000010dc <handle_exception>:
    10dc:	00200793          	li	a5,2
    10e0:	18f80863          	beq	a6,a5,1270 <handle_exception+0x194>
    10e4:	00b00793          	li	a5,11
    10e8:	12f80063          	beq	a6,a5,1208 <handle_exception+0x12c>
    10ec:	04000737          	lui	a4,0x4000
    10f0:	14081463          	bnez	a6,1238 <handle_exception+0x15c>
    10f4:	04000837          	lui	a6,0x4000
    10f8:	00001637          	lui	a2,0x1
    10fc:	46060613          	addi	a2,a2,1120 # 1460 <mytime+0x4>
    1100:	00a00593          	li	a1,10
    1104:	04470713          	addi	a4,a4,68 # 4000044 <_stack_end+0x3efeb5c>
    1108:	000106b7          	lui	a3,0x10
    110c:	04080813          	addi	a6,a6,64 # 4000040 <_stack_end+0x3efeb58>
    1110:	00072783          	lw	a5,0(a4)
    1114:	fed7eee3          	bltu	a5,a3,1110 <handle_exception+0x34>
    1118:	00b82023          	sw	a1,0(a6)
    111c:	00164583          	lbu	a1,1(a2)
    1120:	00160613          	addi	a2,a2,1
    1124:	fe0596e3          	bnez	a1,1110 <handle_exception+0x34>
    1128:	04000737          	lui	a4,0x4000
    112c:	04000837          	lui	a6,0x4000
    1130:	00001637          	lui	a2,0x1
    1134:	4d460613          	addi	a2,a2,1236 # 14d4 <mytime+0x78>
    1138:	04500593          	li	a1,69
    113c:	04470713          	addi	a4,a4,68 # 4000044 <_stack_end+0x3efeb5c>
    1140:	000106b7          	lui	a3,0x10
    1144:	04080813          	addi	a6,a6,64 # 4000040 <_stack_end+0x3efeb58>
    1148:	00072783          	lw	a5,0(a4)
    114c:	fed7eee3          	bltu	a5,a3,1148 <handle_exception+0x6c>
    1150:	00b82023          	sw	a1,0(a6)
    1154:	00164583          	lbu	a1,1(a2)
    1158:	00160613          	addi	a2,a2,1
    115c:	fe0596e3          	bnez	a1,1148 <handle_exception+0x6c>
    1160:	04000737          	lui	a4,0x4000
    1164:	04470713          	addi	a4,a4,68 # 4000044 <_stack_end+0x3efeb5c>
    1168:	000106b7          	lui	a3,0x10
    116c:	00072783          	lw	a5,0(a4)
    1170:	fed7eee3          	bltu	a5,a3,116c <handle_exception+0x90>
    1174:	03000693          	li	a3,48
    1178:	040007b7          	lui	a5,0x4000
    117c:	04000737          	lui	a4,0x4000
    1180:	04d7a023          	sw	a3,64(a5) # 4000040 <_stack_end+0x3efeb58>
    1184:	04470713          	addi	a4,a4,68 # 4000044 <_stack_end+0x3efeb5c>
    1188:	000106b7          	lui	a3,0x10
    118c:	00072783          	lw	a5,0(a4)
    1190:	fed7eee3          	bltu	a5,a3,118c <handle_exception+0xb0>
    1194:	04000837          	lui	a6,0x4000
    1198:	04080813          	addi	a6,a6,64 # 4000040 <_stack_end+0x3efeb58>
    119c:	04000737          	lui	a4,0x4000
    11a0:	07800793          	li	a5,120
    11a4:	00f82023          	sw	a5,0(a6)
    11a8:	01c00613          	li	a2,28
    11ac:	00900313          	li	t1,9
    11b0:	04470713          	addi	a4,a4,68 # 4000044 <_stack_end+0x3efeb5c>
    11b4:	000106b7          	lui	a3,0x10
    11b8:	ffc00893          	li	a7,-4
    11bc:	00c557b3          	srl	a5,a0,a2
    11c0:	00f7f793          	andi	a5,a5,15
    11c4:	03778593          	addi	a1,a5,55
    11c8:	00f36463          	bltu	t1,a5,11d0 <handle_exception+0xf4>
    11cc:	03078593          	addi	a1,a5,48
    11d0:	00072783          	lw	a5,0(a4)
    11d4:	fed7eee3          	bltu	a5,a3,11d0 <handle_exception+0xf4>
    11d8:	00b82023          	sw	a1,0(a6)
    11dc:	ffc60613          	addi	a2,a2,-4
    11e0:	fd161ee3          	bne	a2,a7,11bc <handle_exception+0xe0>
    11e4:	04000737          	lui	a4,0x4000
    11e8:	04470713          	addi	a4,a4,68 # 4000044 <_stack_end+0x3efeb5c>
    11ec:	000106b7          	lui	a3,0x10
    11f0:	00072783          	lw	a5,0(a4)
    11f4:	fed7eee3          	bltu	a5,a3,11f0 <handle_exception+0x114>
    11f8:	040007b7          	lui	a5,0x4000
    11fc:	00a00713          	li	a4,10
    1200:	04e7a023          	sw	a4,64(a5) # 4000040 <_stack_end+0x3efeb58>
    1204:	0000006f          	j	1204 <handle_exception+0x128>
    1208:	00400793          	li	a5,4
    120c:	0af88063          	beq	a7,a5,12ac <handle_exception+0x1d0>
    1210:	0d089a63          	bne	a7,a6,12e4 <handle_exception+0x208>
    1214:	04000737          	lui	a4,0x4000
    1218:	04470713          	addi	a4,a4,68 # 4000044 <_stack_end+0x3efeb5c>
    121c:	000106b7          	lui	a3,0x10
    1220:	00072783          	lw	a5,0(a4)
    1224:	fed7eee3          	bltu	a5,a3,1220 <handle_exception+0x144>
    1228:	040007b7          	lui	a5,0x4000
    122c:	0ff57513          	zext.b	a0,a0
    1230:	04a7a023          	sw	a0,64(a5) # 4000040 <_stack_end+0x3efeb58>
    1234:	00008067          	ret
    1238:	04000837          	lui	a6,0x4000
    123c:	00001637          	lui	a2,0x1
    1240:	4b460613          	addi	a2,a2,1204 # 14b4 <mytime+0x58>
    1244:	00a00593          	li	a1,10
    1248:	04470713          	addi	a4,a4,68
    124c:	000106b7          	lui	a3,0x10
    1250:	04080813          	addi	a6,a6,64 # 4000040 <_stack_end+0x3efeb58>
    1254:	00072783          	lw	a5,0(a4)
    1258:	fed7eee3          	bltu	a5,a3,1254 <handle_exception+0x178>
    125c:	00b82023          	sw	a1,0(a6)
    1260:	00164583          	lbu	a1,1(a2)
    1264:	00160613          	addi	a2,a2,1
    1268:	fe0596e3          	bnez	a1,1254 <handle_exception+0x178>
    126c:	ebdff06f          	j	1128 <handle_exception+0x4c>
    1270:	04000737          	lui	a4,0x4000
    1274:	04000837          	lui	a6,0x4000
    1278:	00001637          	lui	a2,0x1
    127c:	49060613          	addi	a2,a2,1168 # 1490 <mytime+0x34>
    1280:	00a00593          	li	a1,10
    1284:	04470713          	addi	a4,a4,68 # 4000044 <_stack_end+0x3efeb5c>
    1288:	000106b7          	lui	a3,0x10
    128c:	04080813          	addi	a6,a6,64 # 4000040 <_stack_end+0x3efeb58>
    1290:	00072783          	lw	a5,0(a4)
    1294:	fed7eee3          	bltu	a5,a3,1290 <handle_exception+0x1b4>
    1298:	00b82023          	sw	a1,0(a6)
    129c:	00164583          	lbu	a1,1(a2)
    12a0:	00160613          	addi	a2,a2,1
    12a4:	fe0596e3          	bnez	a1,1290 <handle_exception+0x1b4>
    12a8:	e81ff06f          	j	1128 <handle_exception+0x4c>
    12ac:	00054603          	lbu	a2,0(a0)
    12b0:	02060a63          	beqz	a2,12e4 <handle_exception+0x208>
    12b4:	04000737          	lui	a4,0x4000
    12b8:	040005b7          	lui	a1,0x4000
    12bc:	04470713          	addi	a4,a4,68 # 4000044 <_stack_end+0x3efeb5c>
    12c0:	000106b7          	lui	a3,0x10
    12c4:	04058593          	addi	a1,a1,64 # 4000040 <_stack_end+0x3efeb58>
    12c8:	00072783          	lw	a5,0(a4)
    12cc:	fed7eee3          	bltu	a5,a3,12c8 <handle_exception+0x1ec>
    12d0:	00c5a023          	sw	a2,0(a1)
    12d4:	00154603          	lbu	a2,1(a0)
    12d8:	00150513          	addi	a0,a0,1
    12dc:	fe0616e3          	bnez	a2,12c8 <handle_exception+0x1ec>
    12e0:	00008067          	ret
    12e4:	00008067          	ret

000012e8 <nextprime>:
    12e8:	00200713          	li	a4,2
    12ec:	00050793          	mv	a5,a0
    12f0:	02a74063          	blt	a4,a0,1310 <nextprime+0x28>
    12f4:	00100513          	li	a0,1
    12f8:	00f05a63          	blez	a5,130c <nextprime+0x24>
    12fc:	fff78793          	addi	a5,a5,-1
    1300:	00f037b3          	snez	a5,a5
    1304:	00278513          	addi	a0,a5,2
    1308:	00008067          	ret
    130c:	00008067          	ret
    1310:	00150793          	addi	a5,a0,1
    1314:	0017e513          	ori	a0,a5,1
    1318:	00300613          	li	a2,3
    131c:	02c567b3          	rem	a5,a0,a2
    1320:	40155693          	srai	a3,a0,0x1
    1324:	02078263          	beqz	a5,1348 <nextprime+0x60>
    1328:	00268693          	addi	a3,a3,2 # 10002 <__global_pointer+0xe3d5>
    132c:	00300793          	li	a5,3
    1330:	00c0006f          	j	133c <nextprime+0x54>
    1334:	02f56733          	rem	a4,a0,a5
    1338:	00070863          	beqz	a4,1348 <nextprime+0x60>
    133c:	00178793          	addi	a5,a5,1
    1340:	fef69ae3          	bne	a3,a5,1334 <nextprime+0x4c>
    1344:	00008067          	ret
    1348:	00250513          	addi	a0,a0,2
    134c:	fd1ff06f          	j	131c <nextprime+0x34>
