
main.elf:     file format elf32-littleriscv


Disassembly of section .text:

00000000 <_isr_handler>:
       0:	0080006f          	j	8 <_isr_routine>
       4:	1440006f          	j	148 <_start>

00000008 <_isr_routine>:
       8:	f8010113          	addi	sp,sp,-128
       c:	00112023          	sw	ra,0(sp)
      10:	00312423          	sw	gp,8(sp)
      14:	00412623          	sw	tp,12(sp)
      18:	00512823          	sw	t0,16(sp)
      1c:	00612a23          	sw	t1,20(sp)
      20:	00712c23          	sw	t2,24(sp)
      24:	00812e23          	sw	s0,28(sp)
      28:	02912023          	sw	s1,32(sp)
      2c:	02a12223          	sw	a0,36(sp)
      30:	02b12423          	sw	a1,40(sp)
      34:	02c12623          	sw	a2,44(sp)
      38:	02d12823          	sw	a3,48(sp)
      3c:	02e12a23          	sw	a4,52(sp)
      40:	02f12c23          	sw	a5,56(sp)
      44:	03012e23          	sw	a6,60(sp)
      48:	05112023          	sw	a7,64(sp)
      4c:	05212223          	sw	s2,68(sp)
      50:	05312423          	sw	s3,72(sp)
      54:	05412623          	sw	s4,76(sp)
      58:	05512823          	sw	s5,80(sp)
      5c:	05612a23          	sw	s6,84(sp)
      60:	05712c23          	sw	s7,88(sp)
      64:	05812e23          	sw	s8,92(sp)
      68:	07912023          	sw	s9,96(sp)
      6c:	07a12223          	sw	s10,100(sp)
      70:	07b12423          	sw	s11,104(sp)
      74:	07c12623          	sw	t3,108(sp)
      78:	07d12823          	sw	t4,112(sp)
      7c:	07e12a23          	sw	t5,116(sp)
      80:	07f12c23          	sw	t6,120(sp)
      84:	342022f3          	csrr	t0,mcause
      88:	80000337          	lui	t1,0x80000
      8c:	02536463          	bltu	t1,t0,b4 <external_irq>
      90:	00028833          	add	a6,t0,zero
      94:	00b00313          	li	t1,11
      98:	00628463          	beq	t0,t1,a0 <skip_init_args>
      9c:	34102573          	csrr	a0,mepc

000000a0 <skip_init_args>:
      a0:	3d0000ef          	jal	470 <handle_exception>
      a4:	341022f3          	csrr	t0,mepc
      a8:	00428293          	addi	t0,t0,4
      ac:	34129073          	csrw	mepc,t0
      b0:	0180006f          	j	c8 <restore>

000000b4 <external_irq>:
      b4:	800002b7          	lui	t0,0x80000
      b8:	fff28293          	addi	t0,t0,-1 # 7fffffff <_stack_end+0x7fefdbbf>
      bc:	34202373          	csrr	t1,mcause
      c0:	0062f533          	and	a0,t0,t1
      c4:	79c010ef          	jal	1860 <handle_interrupt>

000000c8 <restore>:
      c8:	00012083          	lw	ra,0(sp)
      cc:	00812183          	lw	gp,8(sp)
      d0:	00c12203          	lw	tp,12(sp)
      d4:	01012283          	lw	t0,16(sp)
      d8:	01412303          	lw	t1,20(sp)
      dc:	01812383          	lw	t2,24(sp)
      e0:	01c12403          	lw	s0,28(sp)
      e4:	02012483          	lw	s1,32(sp)
      e8:	02412503          	lw	a0,36(sp)
      ec:	02812583          	lw	a1,40(sp)
      f0:	02c12603          	lw	a2,44(sp)
      f4:	03012683          	lw	a3,48(sp)
      f8:	03412703          	lw	a4,52(sp)
      fc:	03812783          	lw	a5,56(sp)
     100:	03c12803          	lw	a6,60(sp)
     104:	04012883          	lw	a7,64(sp)
     108:	04412903          	lw	s2,68(sp)
     10c:	04812983          	lw	s3,72(sp)
     110:	04c12a03          	lw	s4,76(sp)
     114:	05012a83          	lw	s5,80(sp)
     118:	05412b03          	lw	s6,84(sp)
     11c:	05812b83          	lw	s7,88(sp)
     120:	05c12c03          	lw	s8,92(sp)
     124:	06012c83          	lw	s9,96(sp)
     128:	06412d03          	lw	s10,100(sp)
     12c:	06812d83          	lw	s11,104(sp)
     130:	06c12e03          	lw	t3,108(sp)
     134:	07012e83          	lw	t4,112(sp)
     138:	07412f03          	lw	t5,116(sp)
     13c:	07812f83          	lw	t6,120(sp)
     140:	08010113          	addi	sp,sp,128
     144:	30200073          	mret

00000148 <_start>:
     148:	30401073          	csrw	mie,zero
     14c:	00102117          	auipc	sp,0x102
     150:	2f410113          	addi	sp,sp,756 # 102440 <_stack_end>
     154:	00003197          	auipc	gp,0x3
     158:	93d18193          	addi	gp,gp,-1731 # 2a91 <__global_pointer>
     15c:	00002517          	auipc	a0,0x2
     160:	08050513          	addi	a0,a0,128 # 21dc <welcome_msg>
     164:	00400893          	li	a7,4
     168:	00000073          	ecall
     16c:	7cc010ef          	jal	1938 <main>

00000170 <loop>:
     170:	0000006f          	j	170 <loop>

00000174 <enable_interrupts>:
     174:	30486073          	csrsi	mie,16
     178:	3048e073          	csrsi	mie,17
     17c:	30496073          	csrsi	mie,18
     180:	3001e073          	csrsi	mstatus,3
     184:	00008067          	ret

00000188 <display_string>:
     188:	00400893          	li	a7,4
     18c:	00000073          	ecall
     190:	00a00513          	li	a0,10
     194:	00b00893          	li	a7,11
     198:	00000073          	ecall
     19c:	00008067          	ret

000001a0 <timetemplate>:
     1a0:	00002517          	auipc	a0,0x2
     1a4:	0d450513          	addi	a0,a0,212 # 2274 <timstr>
     1a8:	fe1ff0ef          	jal	188 <display_string>
     1ac:	3e800513          	li	a0,1000
     1b0:	0ac000ef          	jal	25c <delay>
     1b4:	00002517          	auipc	a0,0x2
     1b8:	0bc50513          	addi	a0,a0,188 # 2270 <mytime>
     1bc:	020000ef          	jal	1dc <tick>
     1c0:	00002517          	auipc	a0,0x2
     1c4:	0b450513          	addi	a0,a0,180 # 2274 <timstr>
     1c8:	00002297          	auipc	t0,0x2
     1cc:	0a828293          	addi	t0,t0,168 # 2270 <mytime>
     1d0:	0002a583          	lw	a1,0(t0)
     1d4:	0c0000ef          	jal	294 <time2string>
     1d8:	fc9ff06f          	j	1a0 <timetemplate>

000001dc <tick>:
     1dc:	00052283          	lw	t0,0(a0)
     1e0:	00128293          	addi	t0,t0,1
     1e4:	00f2f313          	andi	t1,t0,15
     1e8:	00a33393          	sltiu	t2,t1,10
     1ec:	06039063          	bnez	t2,24c <tiend>
     1f0:	00628293          	addi	t0,t0,6
     1f4:	0f02f313          	andi	t1,t0,240
     1f8:	06033393          	sltiu	t2,t1,96
     1fc:	04039863          	bnez	t2,24c <tiend>
     200:	0a028293          	addi	t0,t0,160
     204:	00f00e13          	li	t3,15
     208:	008e1e13          	slli	t3,t3,0x8
     20c:	01c2f333          	and	t1,t0,t3
     210:	00a00e13          	li	t3,10
     214:	008e1e13          	slli	t3,t3,0x8
     218:	01c323b3          	slt	t2,t1,t3
     21c:	02039863          	bnez	t2,24c <tiend>
     220:	60028293          	addi	t0,t0,1536
     224:	00f00e13          	li	t3,15
     228:	00ce1e13          	slli	t3,t3,0xc
     22c:	01c2f333          	and	t1,t0,t3
     230:	00600e13          	li	t3,6
     234:	00ce1e13          	slli	t3,t3,0xc
     238:	01c323b3          	slt	t2,t1,t3
     23c:	00039863          	bnez	t2,24c <tiend>
     240:	00a00e13          	li	t3,10
     244:	00ce1e13          	slli	t3,t3,0xc
     248:	01c282b3          	add	t0,t0,t3

0000024c <tiend>:
     24c:	00552023          	sw	t0,0(a0)
     250:	00008067          	ret

00000254 <hex2asc>:
     254:	03050513          	addi	a0,a0,48
     258:	00008067          	ret

0000025c <delay>:
     25c:	ffc10113          	addi	sp,sp,-4
     260:	00112023          	sw	ra,0(sp)

00000264 <out_loop>:
     264:	02a05263          	blez	a0,288 <done_out_loop>
     268:	fff50513          	addi	a0,a0,-1
     26c:	00000293          	li	t0,0
     270:	00002337          	lui	t1,0x2
     274:	70f30313          	addi	t1,t1,1807 # 270f <odd+0x46b>

00000278 <in_loop>:
     278:	00628663          	beq	t0,t1,284 <done_in_loop>
     27c:	00128293          	addi	t0,t0,1
     280:	ff9ff06f          	j	278 <in_loop>

00000284 <done_in_loop>:
     284:	fe1ff06f          	j	264 <out_loop>

00000288 <done_out_loop>:
     288:	00012083          	lw	ra,0(sp)
     28c:	00410113          	addi	sp,sp,4
     290:	00008067          	ret

00000294 <time2string>:
     294:	ffc10113          	addi	sp,sp,-4
     298:	00112023          	sw	ra,0(sp)
     29c:	ffc10113          	addi	sp,sp,-4
     2a0:	00812023          	sw	s0,0(sp)
     2a4:	00a00433          	add	s0,zero,a0
     2a8:	00000293          	li	t0,0
     2ac:	005402a3          	sb	t0,5(s0)
     2b0:	00f5f513          	andi	a0,a1,15
     2b4:	fa1ff0ef          	jal	254 <hex2asc>
     2b8:	00a40223          	sb	a0,4(s0)
     2bc:	0045d593          	srli	a1,a1,0x4
     2c0:	00f5f513          	andi	a0,a1,15
     2c4:	f91ff0ef          	jal	254 <hex2asc>
     2c8:	00a401a3          	sb	a0,3(s0)
     2cc:	0045d593          	srli	a1,a1,0x4
     2d0:	03a00293          	li	t0,58
     2d4:	00540123          	sb	t0,2(s0)
     2d8:	00f5f513          	andi	a0,a1,15
     2dc:	f79ff0ef          	jal	254 <hex2asc>
     2e0:	00a400a3          	sb	a0,1(s0)
     2e4:	0045d593          	srli	a1,a1,0x4
     2e8:	00f5f513          	andi	a0,a1,15
     2ec:	f69ff0ef          	jal	254 <hex2asc>
     2f0:	00a40023          	sb	a0,0(s0)
     2f4:	00012403          	lw	s0,0(sp)
     2f8:	00410113          	addi	sp,sp,4
     2fc:	00012083          	lw	ra,0(sp)
     300:	00410113          	addi	sp,sp,4
     304:	00008067          	ret

00000308 <printc>:
     308:	04000737          	lui	a4,0x4000
     30c:	04470713          	addi	a4,a4,68 # 4000044 <_stack_end+0x3efdc04>
     310:	000106b7          	lui	a3,0x10
     314:	00072783          	lw	a5,0(a4)
     318:	fed7eee3          	bltu	a5,a3,314 <printc+0xc>
     31c:	040007b7          	lui	a5,0x4000
     320:	04a7a023          	sw	a0,64(a5) # 4000040 <_stack_end+0x3efdc00>
     324:	00008067          	ret

00000328 <print>:
     328:	00054603          	lbu	a2,0(a0)
     32c:	02060863          	beqz	a2,35c <print+0x34>
     330:	04000737          	lui	a4,0x4000
     334:	040005b7          	lui	a1,0x4000
     338:	04470713          	addi	a4,a4,68 # 4000044 <_stack_end+0x3efdc04>
     33c:	000106b7          	lui	a3,0x10
     340:	04058593          	addi	a1,a1,64 # 4000040 <_stack_end+0x3efdc00>
     344:	00072783          	lw	a5,0(a4)
     348:	fed7eee3          	bltu	a5,a3,344 <print+0x1c>
     34c:	00c5a023          	sw	a2,0(a1)
     350:	00154603          	lbu	a2,1(a0)
     354:	00150513          	addi	a0,a0,1
     358:	fe0616e3          	bnez	a2,344 <print+0x1c>
     35c:	00008067          	ret

00000360 <print_dec>:
     360:	3b9ad737          	lui	a4,0x3b9ad
     364:	040006b7          	lui	a3,0x4000
     368:	04000337          	lui	t1,0x4000
     36c:	00a00593          	li	a1,10
     370:	00000793          	li	a5,0
     374:	a0070713          	addi	a4,a4,-1536 # 3b9aca00 <_stack_end+0x3b8aa5c0>
     378:	04468693          	addi	a3,a3,68 # 4000044 <_stack_end+0x3efdc04>
     37c:	00010637          	lui	a2,0x10
     380:	04030313          	addi	t1,t1,64 # 4000040 <_stack_end+0x3efdc00>
     384:	00a00893          	li	a7,10
     388:	04e57063          	bgeu	a0,a4,3c8 <print_dec+0x68>
     38c:	02079e63          	bnez	a5,3c8 <print_dec+0x68>
     390:	fff58593          	addi	a1,a1,-1
     394:	02e57533          	remu	a0,a0,a4
     398:	03175733          	divu	a4,a4,a7
     39c:	fe0596e3          	bnez	a1,388 <print_dec+0x28>
     3a0:	02079263          	bnez	a5,3c4 <print_dec+0x64>
     3a4:	04000737          	lui	a4,0x4000
     3a8:	04470713          	addi	a4,a4,68 # 4000044 <_stack_end+0x3efdc04>
     3ac:	000106b7          	lui	a3,0x10
     3b0:	00072783          	lw	a5,0(a4)
     3b4:	fed7eee3          	bltu	a5,a3,3b0 <print_dec+0x50>
     3b8:	040007b7          	lui	a5,0x4000
     3bc:	03000713          	li	a4,48
     3c0:	04e7a023          	sw	a4,64(a5) # 4000040 <_stack_end+0x3efdc00>
     3c4:	00008067          	ret
     3c8:	02e55833          	divu	a6,a0,a4
     3cc:	03080813          	addi	a6,a6,48
     3d0:	0ff87813          	zext.b	a6,a6
     3d4:	0006a783          	lw	a5,0(a3) # 10000 <__global_pointer+0xd56f>
     3d8:	fec7eee3          	bltu	a5,a2,3d4 <print_dec+0x74>
     3dc:	01032023          	sw	a6,0(t1)
     3e0:	00100793          	li	a5,1
     3e4:	fadff06f          	j	390 <print_dec+0x30>

000003e8 <print_hex32>:
     3e8:	04000737          	lui	a4,0x4000
     3ec:	04470713          	addi	a4,a4,68 # 4000044 <_stack_end+0x3efdc04>
     3f0:	000106b7          	lui	a3,0x10
     3f4:	00072783          	lw	a5,0(a4)
     3f8:	fed7eee3          	bltu	a5,a3,3f4 <print_hex32+0xc>
     3fc:	03000693          	li	a3,48
     400:	040007b7          	lui	a5,0x4000
     404:	04000737          	lui	a4,0x4000
     408:	04d7a023          	sw	a3,64(a5) # 4000040 <_stack_end+0x3efdc00>
     40c:	04470713          	addi	a4,a4,68 # 4000044 <_stack_end+0x3efdc04>
     410:	000106b7          	lui	a3,0x10
     414:	00072783          	lw	a5,0(a4)
     418:	fed7eee3          	bltu	a5,a3,414 <print_hex32+0x2c>
     41c:	04000837          	lui	a6,0x4000
     420:	04080813          	addi	a6,a6,64 # 4000040 <_stack_end+0x3efdc00>
     424:	04000737          	lui	a4,0x4000
     428:	07800793          	li	a5,120
     42c:	00f82023          	sw	a5,0(a6)
     430:	01c00613          	li	a2,28
     434:	00900313          	li	t1,9
     438:	04470713          	addi	a4,a4,68 # 4000044 <_stack_end+0x3efdc04>
     43c:	000106b7          	lui	a3,0x10
     440:	ffc00893          	li	a7,-4
     444:	00c557b3          	srl	a5,a0,a2
     448:	00f7f793          	andi	a5,a5,15
     44c:	03778593          	addi	a1,a5,55
     450:	00f36463          	bltu	t1,a5,458 <print_hex32+0x70>
     454:	03078593          	addi	a1,a5,48
     458:	00072783          	lw	a5,0(a4)
     45c:	fed7eee3          	bltu	a5,a3,458 <print_hex32+0x70>
     460:	00b82023          	sw	a1,0(a6)
     464:	ffc60613          	addi	a2,a2,-4 # fffc <__global_pointer+0xd56b>
     468:	fd161ee3          	bne	a2,a7,444 <print_hex32+0x5c>
     46c:	00008067          	ret

00000470 <handle_exception>:
     470:	00200793          	li	a5,2
     474:	18f80863          	beq	a6,a5,604 <handle_exception+0x194>
     478:	00b00793          	li	a5,11
     47c:	12f80063          	beq	a6,a5,59c <handle_exception+0x12c>
     480:	04000737          	lui	a4,0x4000
     484:	14081463          	bnez	a6,5cc <handle_exception+0x15c>
     488:	04000837          	lui	a6,0x4000
     48c:	00002637          	lui	a2,0x2
     490:	2a860613          	addi	a2,a2,680 # 22a8 <odd+0x4>
     494:	00a00593          	li	a1,10
     498:	04470713          	addi	a4,a4,68 # 4000044 <_stack_end+0x3efdc04>
     49c:	000106b7          	lui	a3,0x10
     4a0:	04080813          	addi	a6,a6,64 # 4000040 <_stack_end+0x3efdc00>
     4a4:	00072783          	lw	a5,0(a4)
     4a8:	fed7eee3          	bltu	a5,a3,4a4 <handle_exception+0x34>
     4ac:	00b82023          	sw	a1,0(a6)
     4b0:	00164583          	lbu	a1,1(a2)
     4b4:	00160613          	addi	a2,a2,1
     4b8:	fe0596e3          	bnez	a1,4a4 <handle_exception+0x34>
     4bc:	04000737          	lui	a4,0x4000
     4c0:	04000837          	lui	a6,0x4000
     4c4:	00002637          	lui	a2,0x2
     4c8:	32060613          	addi	a2,a2,800 # 2320 <odd+0x7c>
     4cc:	04500593          	li	a1,69
     4d0:	04470713          	addi	a4,a4,68 # 4000044 <_stack_end+0x3efdc04>
     4d4:	000106b7          	lui	a3,0x10
     4d8:	04080813          	addi	a6,a6,64 # 4000040 <_stack_end+0x3efdc00>
     4dc:	00072783          	lw	a5,0(a4)
     4e0:	fed7eee3          	bltu	a5,a3,4dc <handle_exception+0x6c>
     4e4:	00b82023          	sw	a1,0(a6)
     4e8:	00164583          	lbu	a1,1(a2)
     4ec:	00160613          	addi	a2,a2,1
     4f0:	fe0596e3          	bnez	a1,4dc <handle_exception+0x6c>
     4f4:	04000737          	lui	a4,0x4000
     4f8:	04470713          	addi	a4,a4,68 # 4000044 <_stack_end+0x3efdc04>
     4fc:	000106b7          	lui	a3,0x10
     500:	00072783          	lw	a5,0(a4)
     504:	fed7eee3          	bltu	a5,a3,500 <handle_exception+0x90>
     508:	03000693          	li	a3,48
     50c:	040007b7          	lui	a5,0x4000
     510:	04000737          	lui	a4,0x4000
     514:	04d7a023          	sw	a3,64(a5) # 4000040 <_stack_end+0x3efdc00>
     518:	04470713          	addi	a4,a4,68 # 4000044 <_stack_end+0x3efdc04>
     51c:	000106b7          	lui	a3,0x10
     520:	00072783          	lw	a5,0(a4)
     524:	fed7eee3          	bltu	a5,a3,520 <handle_exception+0xb0>
     528:	04000837          	lui	a6,0x4000
     52c:	04080813          	addi	a6,a6,64 # 4000040 <_stack_end+0x3efdc00>
     530:	04000737          	lui	a4,0x4000
     534:	07800793          	li	a5,120
     538:	00f82023          	sw	a5,0(a6)
     53c:	01c00613          	li	a2,28
     540:	00900313          	li	t1,9
     544:	04470713          	addi	a4,a4,68 # 4000044 <_stack_end+0x3efdc04>
     548:	000106b7          	lui	a3,0x10
     54c:	ffc00893          	li	a7,-4
     550:	00c557b3          	srl	a5,a0,a2
     554:	00f7f793          	andi	a5,a5,15
     558:	03778593          	addi	a1,a5,55
     55c:	00f36463          	bltu	t1,a5,564 <handle_exception+0xf4>
     560:	03078593          	addi	a1,a5,48
     564:	00072783          	lw	a5,0(a4)
     568:	fed7eee3          	bltu	a5,a3,564 <handle_exception+0xf4>
     56c:	00b82023          	sw	a1,0(a6)
     570:	ffc60613          	addi	a2,a2,-4
     574:	fd161ee3          	bne	a2,a7,550 <handle_exception+0xe0>
     578:	04000737          	lui	a4,0x4000
     57c:	04470713          	addi	a4,a4,68 # 4000044 <_stack_end+0x3efdc04>
     580:	000106b7          	lui	a3,0x10
     584:	00072783          	lw	a5,0(a4)
     588:	fed7eee3          	bltu	a5,a3,584 <handle_exception+0x114>
     58c:	040007b7          	lui	a5,0x4000
     590:	00a00713          	li	a4,10
     594:	04e7a023          	sw	a4,64(a5) # 4000040 <_stack_end+0x3efdc00>
     598:	0000006f          	j	598 <handle_exception+0x128>
     59c:	00400793          	li	a5,4
     5a0:	0af88063          	beq	a7,a5,640 <handle_exception+0x1d0>
     5a4:	0d089a63          	bne	a7,a6,678 <handle_exception+0x208>
     5a8:	04000737          	lui	a4,0x4000
     5ac:	04470713          	addi	a4,a4,68 # 4000044 <_stack_end+0x3efdc04>
     5b0:	000106b7          	lui	a3,0x10
     5b4:	00072783          	lw	a5,0(a4)
     5b8:	fed7eee3          	bltu	a5,a3,5b4 <handle_exception+0x144>
     5bc:	040007b7          	lui	a5,0x4000
     5c0:	0ff57513          	zext.b	a0,a0
     5c4:	04a7a023          	sw	a0,64(a5) # 4000040 <_stack_end+0x3efdc00>
     5c8:	00008067          	ret
     5cc:	04000837          	lui	a6,0x4000
     5d0:	00002637          	lui	a2,0x2
     5d4:	30060613          	addi	a2,a2,768 # 2300 <odd+0x5c>
     5d8:	00a00593          	li	a1,10
     5dc:	04470713          	addi	a4,a4,68
     5e0:	000106b7          	lui	a3,0x10
     5e4:	04080813          	addi	a6,a6,64 # 4000040 <_stack_end+0x3efdc00>
     5e8:	00072783          	lw	a5,0(a4)
     5ec:	fed7eee3          	bltu	a5,a3,5e8 <handle_exception+0x178>
     5f0:	00b82023          	sw	a1,0(a6)
     5f4:	00164583          	lbu	a1,1(a2)
     5f8:	00160613          	addi	a2,a2,1
     5fc:	fe0596e3          	bnez	a1,5e8 <handle_exception+0x178>
     600:	ebdff06f          	j	4bc <handle_exception+0x4c>
     604:	04000737          	lui	a4,0x4000
     608:	04000837          	lui	a6,0x4000
     60c:	00002637          	lui	a2,0x2
     610:	2d860613          	addi	a2,a2,728 # 22d8 <odd+0x34>
     614:	00a00593          	li	a1,10
     618:	04470713          	addi	a4,a4,68 # 4000044 <_stack_end+0x3efdc04>
     61c:	000106b7          	lui	a3,0x10
     620:	04080813          	addi	a6,a6,64 # 4000040 <_stack_end+0x3efdc00>
     624:	00072783          	lw	a5,0(a4)
     628:	fed7eee3          	bltu	a5,a3,624 <handle_exception+0x1b4>
     62c:	00b82023          	sw	a1,0(a6)
     630:	00164583          	lbu	a1,1(a2)
     634:	00160613          	addi	a2,a2,1
     638:	fe0596e3          	bnez	a1,624 <handle_exception+0x1b4>
     63c:	e81ff06f          	j	4bc <handle_exception+0x4c>
     640:	00054603          	lbu	a2,0(a0)
     644:	02060a63          	beqz	a2,678 <handle_exception+0x208>
     648:	04000737          	lui	a4,0x4000
     64c:	040005b7          	lui	a1,0x4000
     650:	04470713          	addi	a4,a4,68 # 4000044 <_stack_end+0x3efdc04>
     654:	000106b7          	lui	a3,0x10
     658:	04058593          	addi	a1,a1,64 # 4000040 <_stack_end+0x3efdc00>
     65c:	00072783          	lw	a5,0(a4)
     660:	fed7eee3          	bltu	a5,a3,65c <handle_exception+0x1ec>
     664:	00c5a023          	sw	a2,0(a1)
     668:	00154603          	lbu	a2,1(a0)
     66c:	00150513          	addi	a0,a0,1
     670:	fe0616e3          	bnez	a2,65c <handle_exception+0x1ec>
     674:	00008067          	ret
     678:	00008067          	ret

0000067c <nextprime>:
     67c:	00200713          	li	a4,2
     680:	00050793          	mv	a5,a0
     684:	02a74063          	blt	a4,a0,6a4 <nextprime+0x28>
     688:	00100513          	li	a0,1
     68c:	00f05a63          	blez	a5,6a0 <nextprime+0x24>
     690:	fff78793          	addi	a5,a5,-1
     694:	00f037b3          	snez	a5,a5
     698:	00278513          	addi	a0,a5,2
     69c:	00008067          	ret
     6a0:	00008067          	ret
     6a4:	00150793          	addi	a5,a0,1
     6a8:	0017e513          	ori	a0,a5,1
     6ac:	00300613          	li	a2,3
     6b0:	02c567b3          	rem	a5,a0,a2
     6b4:	40155693          	srai	a3,a0,0x1
     6b8:	02078263          	beqz	a5,6dc <nextprime+0x60>
     6bc:	00268693          	addi	a3,a3,2 # 10002 <__global_pointer+0xd571>
     6c0:	00300793          	li	a5,3
     6c4:	00c0006f          	j	6d0 <nextprime+0x54>
     6c8:	02f56733          	rem	a4,a0,a5
     6cc:	00070863          	beqz	a4,6dc <nextprime+0x60>
     6d0:	00178793          	addi	a5,a5,1
     6d4:	fef69ae3          	bne	a3,a5,6c8 <nextprime+0x4c>
     6d8:	00008067          	ret
     6dc:	00250513          	addi	a0,a0,2
     6e0:	fd1ff06f          	j	6b0 <nextprime+0x34>

000006e4 <getsnap>:
     6e4:	040007b7          	lui	a5,0x4000
     6e8:	02079823          	sh	zero,48(a5) # 4000030 <_stack_end+0x3efdbf0>
     6ec:	0307d503          	lhu	a0,48(a5)
     6f0:	01051513          	slli	a0,a0,0x10
     6f4:	41055513          	srai	a0,a0,0x10
     6f8:	00008067          	ret

000006fc <hash>:
     6fc:	41055793          	srai	a5,a0,0x10
     700:	045da737          	lui	a4,0x45da
     704:	f3b70713          	addi	a4,a4,-197 # 45d9f3b <_stack_end+0x44d7afb>
     708:	00a7c533          	xor	a0,a5,a0
     70c:	02e50533          	mul	a0,a0,a4
     710:	41055793          	srai	a5,a0,0x10
     714:	00a7c7b3          	xor	a5,a5,a0
     718:	02e787b3          	mul	a5,a5,a4
     71c:	4107d513          	srai	a0,a5,0x10
     720:	00f54533          	xor	a0,a0,a5
     724:	00008067          	ret

00000728 <randFT>:
     728:	040007b7          	lui	a5,0x4000
     72c:	02079823          	sh	zero,48(a5) # 4000030 <_stack_end+0x3efdbf0>
     730:	0307d603          	lhu	a2,48(a5)
     734:	045da6b7          	lui	a3,0x45da
     738:	f3b68693          	addi	a3,a3,-197 # 45d9f3b <_stack_end+0x44d7afb>
     73c:	01061613          	slli	a2,a2,0x10
     740:	41065613          	srai	a2,a2,0x10
     744:	41065713          	srai	a4,a2,0x10
     748:	00c74733          	xor	a4,a4,a2
     74c:	02d70733          	mul	a4,a4,a3
     750:	40a585b3          	sub	a1,a1,a0
     754:	41075793          	srai	a5,a4,0x10
     758:	00e7c7b3          	xor	a5,a5,a4
     75c:	02d787b3          	mul	a5,a5,a3
     760:	4107d713          	srai	a4,a5,0x10
     764:	00e7c7b3          	xor	a5,a5,a4
     768:	02b7e7b3          	rem	a5,a5,a1
     76c:	00a78533          	add	a0,a5,a0
     770:	00008067          	ret

00000774 <set_displays.constprop.0>:
     774:	02050c63          	beqz	a0,7ac <set_displays.constprop.0+0x38>
     778:	00a00793          	li	a5,10
     77c:	04f50263          	beq	a0,a5,7c0 <set_displays.constprop.0+0x4c>
     780:	00100793          	li	a5,1
     784:	04f50863          	beq	a0,a5,7d4 <set_displays.constprop.0+0x60>
     788:	00200713          	li	a4,2
     78c:	0a400793          	li	a5,164
     790:	08e51463          	bne	a0,a4,818 <__heap_size+0x18>
     794:	02300693          	li	a3,35
     798:	0ff00713          	li	a4,255
     79c:	04d51c63          	bne	a0,a3,7f4 <set_displays.constprop.0+0x80>
     7a0:	040007b7          	lui	a5,0x4000
     7a4:	0ae79023          	sh	a4,160(a5) # 40000a0 <_stack_end+0x3efdc60>
     7a8:	00008067          	ret
     7ac:	0c000793          	li	a5,192
     7b0:	00b00713          	li	a4,11
     7b4:	0ce51863          	bne	a0,a4,884 <__heap_size+0x84>
     7b8:	08800793          	li	a5,136
     7bc:	0940006f          	j	850 <__heap_size+0x50>
     7c0:	0c000793          	li	a5,192
     7c4:	01a00693          	li	a3,26
     7c8:	08c00713          	li	a4,140
     7cc:	fcd50ae3          	beq	a0,a3,7a0 <set_displays.constprop.0+0x2c>
     7d0:	0080006f          	j	7d8 <set_displays.constprop.0+0x64>
     7d4:	0f900793          	li	a5,249
     7d8:	01e00693          	li	a3,30
     7dc:	0ce00713          	li	a4,206
     7e0:	fcd500e3          	beq	a0,a3,7a0 <set_displays.constprop.0+0x2c>
     7e4:	02200693          	li	a3,34
     7e8:	08d00713          	li	a4,141
     7ec:	fad50ae3          	beq	a0,a3,7a0 <set_displays.constprop.0+0x2c>
     7f0:	fa5ff06f          	j	794 <set_displays.constprop.0+0x20>
     7f4:	02400693          	li	a3,36
     7f8:	0bf00713          	li	a4,191
     7fc:	fad502e3          	beq	a0,a3,7a0 <set_displays.constprop.0+0x2c>
     800:	02500693          	li	a3,37
     804:	0b900713          	li	a4,185
     808:	04d51463          	bne	a0,a3,850 <__heap_size+0x50>
     80c:	040007b7          	lui	a5,0x4000
     810:	0ae79023          	sh	a4,160(a5) # 40000a0 <_stack_end+0x3efdc60>
     814:	00008067          	ret
     818:	00300713          	li	a4,3
     81c:	0b000793          	li	a5,176
     820:	fce50ae3          	beq	a0,a4,7f4 <set_displays.constprop.0+0x80>
     824:	00400713          	li	a4,4
     828:	09900793          	li	a5,153
     82c:	fce50ae3          	beq	a0,a4,800 <__heap_size>
     830:	00500793          	li	a5,5
     834:	04f50463          	beq	a0,a5,87c <__heap_size+0x7c>
     838:	00600713          	li	a4,6
     83c:	08200793          	li	a5,130
     840:	fce500e3          	beq	a0,a4,800 <__heap_size>
     844:	00700713          	li	a4,7
     848:	0f800793          	li	a5,248
     84c:	00e51863          	bne	a0,a4,85c <__heap_size+0x5c>
     850:	01079713          	slli	a4,a5,0x10
     854:	41075713          	srai	a4,a4,0x10
     858:	f49ff06f          	j	7a0 <set_displays.constprop.0+0x2c>
     85c:	00800713          	li	a4,8
     860:	08000793          	li	a5,128
     864:	fee506e3          	beq	a0,a4,850 <__heap_size+0x50>
     868:	00900713          	li	a4,9
     86c:	09000793          	li	a5,144
     870:	fee500e3          	beq	a0,a4,850 <__heap_size+0x50>
     874:	0ff00793          	li	a5,255
     878:	f39ff06f          	j	7b0 <set_displays.constprop.0+0x3c>
     87c:	09200793          	li	a5,146
     880:	fd1ff06f          	j	850 <__heap_size+0x50>
     884:	00f00713          	li	a4,15
     888:	00e51663          	bne	a0,a4,894 <__heap_size+0x94>
     88c:	08600793          	li	a5,134
     890:	fc1ff06f          	j	850 <__heap_size+0x50>
     894:	01200693          	li	a3,18
     898:	08900713          	li	a4,137
     89c:	f0d502e3          	beq	a0,a3,7a0 <set_displays.constprop.0+0x2c>
     8a0:	01400693          	li	a3,20
     8a4:	0e100713          	li	a4,225
     8a8:	eed50ce3          	beq	a0,a3,7a0 <set_displays.constprop.0+0x2c>
     8ac:	01600693          	li	a3,22
     8b0:	0c700713          	li	a4,199
     8b4:	eed506e3          	beq	a0,a3,7a0 <set_displays.constprop.0+0x2c>
     8b8:	f0dff06f          	j	7c4 <set_displays.constprop.0+0x50>

000008bc <set_displays.constprop.1>:
     8bc:	02050c63          	beqz	a0,8f4 <set_displays.constprop.1+0x38>
     8c0:	00a00793          	li	a5,10
     8c4:	04f50263          	beq	a0,a5,908 <set_displays.constprop.1+0x4c>
     8c8:	00100793          	li	a5,1
     8cc:	04f50863          	beq	a0,a5,91c <set_displays.constprop.1+0x60>
     8d0:	00200713          	li	a4,2
     8d4:	0a400793          	li	a5,164
     8d8:	08e51463          	bne	a0,a4,960 <set_displays.constprop.1+0xa4>
     8dc:	02300693          	li	a3,35
     8e0:	0ff00713          	li	a4,255
     8e4:	04d51c63          	bne	a0,a3,93c <set_displays.constprop.1+0x80>
     8e8:	040007b7          	lui	a5,0x4000
     8ec:	06e79823          	sh	a4,112(a5) # 4000070 <_stack_end+0x3efdc30>
     8f0:	00008067          	ret
     8f4:	0c000793          	li	a5,192
     8f8:	00b00713          	li	a4,11
     8fc:	0ce51863          	bne	a0,a4,9cc <set_displays.constprop.1+0x110>
     900:	08800793          	li	a5,136
     904:	0940006f          	j	998 <set_displays.constprop.1+0xdc>
     908:	0c000793          	li	a5,192
     90c:	01a00693          	li	a3,26
     910:	08c00713          	li	a4,140
     914:	fcd50ae3          	beq	a0,a3,8e8 <set_displays.constprop.1+0x2c>
     918:	0080006f          	j	920 <set_displays.constprop.1+0x64>
     91c:	0f900793          	li	a5,249
     920:	01e00693          	li	a3,30
     924:	0ce00713          	li	a4,206
     928:	fcd500e3          	beq	a0,a3,8e8 <set_displays.constprop.1+0x2c>
     92c:	02200693          	li	a3,34
     930:	08d00713          	li	a4,141
     934:	fad50ae3          	beq	a0,a3,8e8 <set_displays.constprop.1+0x2c>
     938:	fa5ff06f          	j	8dc <set_displays.constprop.1+0x20>
     93c:	02400693          	li	a3,36
     940:	0bf00713          	li	a4,191
     944:	fad502e3          	beq	a0,a3,8e8 <set_displays.constprop.1+0x2c>
     948:	02500693          	li	a3,37
     94c:	0b900713          	li	a4,185
     950:	04d51463          	bne	a0,a3,998 <set_displays.constprop.1+0xdc>
     954:	040007b7          	lui	a5,0x4000
     958:	06e79823          	sh	a4,112(a5) # 4000070 <_stack_end+0x3efdc30>
     95c:	00008067          	ret
     960:	00300713          	li	a4,3
     964:	0b000793          	li	a5,176
     968:	fce50ae3          	beq	a0,a4,93c <set_displays.constprop.1+0x80>
     96c:	00400713          	li	a4,4
     970:	09900793          	li	a5,153
     974:	fce50ae3          	beq	a0,a4,948 <set_displays.constprop.1+0x8c>
     978:	00500793          	li	a5,5
     97c:	04f50463          	beq	a0,a5,9c4 <set_displays.constprop.1+0x108>
     980:	00600713          	li	a4,6
     984:	08200793          	li	a5,130
     988:	fce500e3          	beq	a0,a4,948 <set_displays.constprop.1+0x8c>
     98c:	00700713          	li	a4,7
     990:	0f800793          	li	a5,248
     994:	00e51863          	bne	a0,a4,9a4 <set_displays.constprop.1+0xe8>
     998:	01079713          	slli	a4,a5,0x10
     99c:	41075713          	srai	a4,a4,0x10
     9a0:	f49ff06f          	j	8e8 <set_displays.constprop.1+0x2c>
     9a4:	00800713          	li	a4,8
     9a8:	08000793          	li	a5,128
     9ac:	fee506e3          	beq	a0,a4,998 <set_displays.constprop.1+0xdc>
     9b0:	00900713          	li	a4,9
     9b4:	09000793          	li	a5,144
     9b8:	fee500e3          	beq	a0,a4,998 <set_displays.constprop.1+0xdc>
     9bc:	0ff00793          	li	a5,255
     9c0:	f39ff06f          	j	8f8 <set_displays.constprop.1+0x3c>
     9c4:	09200793          	li	a5,146
     9c8:	fd1ff06f          	j	998 <set_displays.constprop.1+0xdc>
     9cc:	00f00713          	li	a4,15
     9d0:	00e51663          	bne	a0,a4,9dc <set_displays.constprop.1+0x120>
     9d4:	08600793          	li	a5,134
     9d8:	fc1ff06f          	j	998 <set_displays.constprop.1+0xdc>
     9dc:	01200693          	li	a3,18
     9e0:	08900713          	li	a4,137
     9e4:	f0d502e3          	beq	a0,a3,8e8 <set_displays.constprop.1+0x2c>
     9e8:	01400693          	li	a3,20
     9ec:	0e100713          	li	a4,225
     9f0:	eed50ce3          	beq	a0,a3,8e8 <set_displays.constprop.1+0x2c>
     9f4:	01600693          	li	a3,22
     9f8:	0c700713          	li	a4,199
     9fc:	eed506e3          	beq	a0,a3,8e8 <set_displays.constprop.1+0x2c>
     a00:	f0dff06f          	j	90c <set_displays.constprop.1+0x50>

00000a04 <set_displays.constprop.2>:
     a04:	02050c63          	beqz	a0,a3c <set_displays.constprop.2+0x38>
     a08:	00a00793          	li	a5,10
     a0c:	04f50263          	beq	a0,a5,a50 <set_displays.constprop.2+0x4c>
     a10:	00100793          	li	a5,1
     a14:	04f50863          	beq	a0,a5,a64 <set_displays.constprop.2+0x60>
     a18:	00200713          	li	a4,2
     a1c:	0a400793          	li	a5,164
     a20:	08e51463          	bne	a0,a4,aa8 <set_displays.constprop.2+0xa4>
     a24:	02300693          	li	a3,35
     a28:	0ff00713          	li	a4,255
     a2c:	04d51c63          	bne	a0,a3,a84 <set_displays.constprop.2+0x80>
     a30:	040007b7          	lui	a5,0x4000
     a34:	06e79023          	sh	a4,96(a5) # 4000060 <_stack_end+0x3efdc20>
     a38:	00008067          	ret
     a3c:	0c000793          	li	a5,192
     a40:	00b00713          	li	a4,11
     a44:	0ce51863          	bne	a0,a4,b14 <set_displays.constprop.2+0x110>
     a48:	08800793          	li	a5,136
     a4c:	0940006f          	j	ae0 <set_displays.constprop.2+0xdc>
     a50:	0c000793          	li	a5,192
     a54:	01a00693          	li	a3,26
     a58:	08c00713          	li	a4,140
     a5c:	fcd50ae3          	beq	a0,a3,a30 <set_displays.constprop.2+0x2c>
     a60:	0080006f          	j	a68 <set_displays.constprop.2+0x64>
     a64:	0f900793          	li	a5,249
     a68:	01e00693          	li	a3,30
     a6c:	0ce00713          	li	a4,206
     a70:	fcd500e3          	beq	a0,a3,a30 <set_displays.constprop.2+0x2c>
     a74:	02200693          	li	a3,34
     a78:	08d00713          	li	a4,141
     a7c:	fad50ae3          	beq	a0,a3,a30 <set_displays.constprop.2+0x2c>
     a80:	fa5ff06f          	j	a24 <set_displays.constprop.2+0x20>
     a84:	02400693          	li	a3,36
     a88:	0bf00713          	li	a4,191
     a8c:	fad502e3          	beq	a0,a3,a30 <set_displays.constprop.2+0x2c>
     a90:	02500693          	li	a3,37
     a94:	0b900713          	li	a4,185
     a98:	04d51463          	bne	a0,a3,ae0 <set_displays.constprop.2+0xdc>
     a9c:	040007b7          	lui	a5,0x4000
     aa0:	06e79023          	sh	a4,96(a5) # 4000060 <_stack_end+0x3efdc20>
     aa4:	00008067          	ret
     aa8:	00300713          	li	a4,3
     aac:	0b000793          	li	a5,176
     ab0:	fce50ae3          	beq	a0,a4,a84 <set_displays.constprop.2+0x80>
     ab4:	00400713          	li	a4,4
     ab8:	09900793          	li	a5,153
     abc:	fce50ae3          	beq	a0,a4,a90 <set_displays.constprop.2+0x8c>
     ac0:	00500793          	li	a5,5
     ac4:	04f50463          	beq	a0,a5,b0c <set_displays.constprop.2+0x108>
     ac8:	00600713          	li	a4,6
     acc:	08200793          	li	a5,130
     ad0:	fce500e3          	beq	a0,a4,a90 <set_displays.constprop.2+0x8c>
     ad4:	00700713          	li	a4,7
     ad8:	0f800793          	li	a5,248
     adc:	00e51863          	bne	a0,a4,aec <set_displays.constprop.2+0xe8>
     ae0:	01079713          	slli	a4,a5,0x10
     ae4:	41075713          	srai	a4,a4,0x10
     ae8:	f49ff06f          	j	a30 <set_displays.constprop.2+0x2c>
     aec:	00800713          	li	a4,8
     af0:	08000793          	li	a5,128
     af4:	fee506e3          	beq	a0,a4,ae0 <set_displays.constprop.2+0xdc>
     af8:	00900713          	li	a4,9
     afc:	09000793          	li	a5,144
     b00:	fee500e3          	beq	a0,a4,ae0 <set_displays.constprop.2+0xdc>
     b04:	0ff00793          	li	a5,255
     b08:	f39ff06f          	j	a40 <set_displays.constprop.2+0x3c>
     b0c:	09200793          	li	a5,146
     b10:	fd1ff06f          	j	ae0 <set_displays.constprop.2+0xdc>
     b14:	00f00713          	li	a4,15
     b18:	00e51663          	bne	a0,a4,b24 <set_displays.constprop.2+0x120>
     b1c:	08600793          	li	a5,134
     b20:	fc1ff06f          	j	ae0 <set_displays.constprop.2+0xdc>
     b24:	01200693          	li	a3,18
     b28:	08900713          	li	a4,137
     b2c:	f0d502e3          	beq	a0,a3,a30 <set_displays.constprop.2+0x2c>
     b30:	01400693          	li	a3,20
     b34:	0e100713          	li	a4,225
     b38:	eed50ce3          	beq	a0,a3,a30 <set_displays.constprop.2+0x2c>
     b3c:	01600693          	li	a3,22
     b40:	0c700713          	li	a4,199
     b44:	eed506e3          	beq	a0,a3,a30 <set_displays.constprop.2+0x2c>
     b48:	f0dff06f          	j	a54 <set_displays.constprop.2+0x50>

00000b4c <set_displays.constprop.3>:
     b4c:	02050c63          	beqz	a0,b84 <set_displays.constprop.3+0x38>
     b50:	00a00793          	li	a5,10
     b54:	04f50263          	beq	a0,a5,b98 <set_displays.constprop.3+0x4c>
     b58:	00100793          	li	a5,1
     b5c:	04f50863          	beq	a0,a5,bac <set_displays.constprop.3+0x60>
     b60:	00200713          	li	a4,2
     b64:	0a400793          	li	a5,164
     b68:	08e51463          	bne	a0,a4,bf0 <set_displays.constprop.3+0xa4>
     b6c:	02300693          	li	a3,35
     b70:	0ff00713          	li	a4,255
     b74:	04d51c63          	bne	a0,a3,bcc <set_displays.constprop.3+0x80>
     b78:	040007b7          	lui	a5,0x4000
     b7c:	04e79823          	sh	a4,80(a5) # 4000050 <_stack_end+0x3efdc10>
     b80:	00008067          	ret
     b84:	0c000793          	li	a5,192
     b88:	00b00713          	li	a4,11
     b8c:	0ce51863          	bne	a0,a4,c5c <set_displays.constprop.3+0x110>
     b90:	08800793          	li	a5,136
     b94:	0940006f          	j	c28 <set_displays.constprop.3+0xdc>
     b98:	0c000793          	li	a5,192
     b9c:	01a00693          	li	a3,26
     ba0:	08c00713          	li	a4,140
     ba4:	fcd50ae3          	beq	a0,a3,b78 <set_displays.constprop.3+0x2c>
     ba8:	0080006f          	j	bb0 <set_displays.constprop.3+0x64>
     bac:	0f900793          	li	a5,249
     bb0:	01e00693          	li	a3,30
     bb4:	0ce00713          	li	a4,206
     bb8:	fcd500e3          	beq	a0,a3,b78 <set_displays.constprop.3+0x2c>
     bbc:	02200693          	li	a3,34
     bc0:	08d00713          	li	a4,141
     bc4:	fad50ae3          	beq	a0,a3,b78 <set_displays.constprop.3+0x2c>
     bc8:	fa5ff06f          	j	b6c <set_displays.constprop.3+0x20>
     bcc:	02400693          	li	a3,36
     bd0:	0bf00713          	li	a4,191
     bd4:	fad502e3          	beq	a0,a3,b78 <set_displays.constprop.3+0x2c>
     bd8:	02500693          	li	a3,37
     bdc:	0b900713          	li	a4,185
     be0:	04d51463          	bne	a0,a3,c28 <set_displays.constprop.3+0xdc>
     be4:	040007b7          	lui	a5,0x4000
     be8:	04e79823          	sh	a4,80(a5) # 4000050 <_stack_end+0x3efdc10>
     bec:	00008067          	ret
     bf0:	00300713          	li	a4,3
     bf4:	0b000793          	li	a5,176
     bf8:	fce50ae3          	beq	a0,a4,bcc <set_displays.constprop.3+0x80>
     bfc:	00400713          	li	a4,4
     c00:	09900793          	li	a5,153
     c04:	fce50ae3          	beq	a0,a4,bd8 <set_displays.constprop.3+0x8c>
     c08:	00500793          	li	a5,5
     c0c:	04f50463          	beq	a0,a5,c54 <set_displays.constprop.3+0x108>
     c10:	00600713          	li	a4,6
     c14:	08200793          	li	a5,130
     c18:	fce500e3          	beq	a0,a4,bd8 <set_displays.constprop.3+0x8c>
     c1c:	00700713          	li	a4,7
     c20:	0f800793          	li	a5,248
     c24:	00e51863          	bne	a0,a4,c34 <set_displays.constprop.3+0xe8>
     c28:	01079713          	slli	a4,a5,0x10
     c2c:	41075713          	srai	a4,a4,0x10
     c30:	f49ff06f          	j	b78 <set_displays.constprop.3+0x2c>
     c34:	00800713          	li	a4,8
     c38:	08000793          	li	a5,128
     c3c:	fee506e3          	beq	a0,a4,c28 <set_displays.constprop.3+0xdc>
     c40:	00900713          	li	a4,9
     c44:	09000793          	li	a5,144
     c48:	fee500e3          	beq	a0,a4,c28 <set_displays.constprop.3+0xdc>
     c4c:	0ff00793          	li	a5,255
     c50:	f39ff06f          	j	b88 <set_displays.constprop.3+0x3c>
     c54:	09200793          	li	a5,146
     c58:	fd1ff06f          	j	c28 <set_displays.constprop.3+0xdc>
     c5c:	00f00713          	li	a4,15
     c60:	00e51663          	bne	a0,a4,c6c <set_displays.constprop.3+0x120>
     c64:	08600793          	li	a5,134
     c68:	fc1ff06f          	j	c28 <set_displays.constprop.3+0xdc>
     c6c:	01200693          	li	a3,18
     c70:	08900713          	li	a4,137
     c74:	f0d502e3          	beq	a0,a3,b78 <set_displays.constprop.3+0x2c>
     c78:	01400693          	li	a3,20
     c7c:	0e100713          	li	a4,225
     c80:	eed50ce3          	beq	a0,a3,b78 <set_displays.constprop.3+0x2c>
     c84:	01600693          	li	a3,22
     c88:	0c700713          	li	a4,199
     c8c:	eed506e3          	beq	a0,a3,b78 <set_displays.constprop.3+0x2c>
     c90:	f0dff06f          	j	b9c <set_displays.constprop.3+0x50>

00000c94 <set_payroll>:
     c94:	000027b7          	lui	a5,0x2
     c98:	28a7ae23          	sw	a0,668(a5) # 229c <payroll>
     c9c:	00008067          	ret

00000ca0 <set_leds>:
     ca0:	040007b7          	lui	a5,0x4000
     ca4:	00a7a023          	sw	a0,0(a5) # 4000000 <_stack_end+0x3efdbc0>
     ca8:	00008067          	ret

00000cac <reset_disp>:
     cac:	fff00793          	li	a5,-1
     cb0:	04000837          	lui	a6,0x4000
     cb4:	04f81823          	sh	a5,80(a6) # 4000050 <_stack_end+0x3efdc10>
     cb8:	04000537          	lui	a0,0x4000
     cbc:	06f51023          	sh	a5,96(a0) # 4000060 <_stack_end+0x3efdc20>
     cc0:	040005b7          	lui	a1,0x4000
     cc4:	06f59823          	sh	a5,112(a1) # 4000070 <_stack_end+0x3efdc30>
     cc8:	04000637          	lui	a2,0x4000
     ccc:	08f61023          	sh	a5,128(a2) # 4000080 <_stack_end+0x3efdc40>
     cd0:	040006b7          	lui	a3,0x4000
     cd4:	04000737          	lui	a4,0x4000
     cd8:	08f69823          	sh	a5,144(a3) # 4000090 <_stack_end+0x3efdc50>
     cdc:	0af71023          	sh	a5,160(a4) # 40000a0 <_stack_end+0x3efdc60>
     ce0:	00008067          	ret

00000ce4 <set_displays>:
     ce4:	06058263          	beqz	a1,d48 <set_displays+0x64>
     ce8:	00a00793          	li	a5,10
     cec:	06f58863          	beq	a1,a5,d5c <set_displays+0x78>
     cf0:	00100793          	li	a5,1
     cf4:	06f58e63          	beq	a1,a5,d70 <set_displays+0x8c>
     cf8:	00200713          	li	a4,2
     cfc:	0a400793          	li	a5,164
     d00:	08e59863          	bne	a1,a4,d90 <set_displays+0xac>
     d04:	02300693          	li	a3,35
     d08:	0ff00713          	li	a4,255
     d0c:	02d58263          	beq	a1,a3,d30 <set_displays+0x4c>
     d10:	02400693          	li	a3,36
     d14:	0bf00713          	li	a4,191
     d18:	00d58c63          	beq	a1,a3,d30 <set_displays+0x4c>
     d1c:	02500693          	li	a3,37
     d20:	0b900713          	li	a4,185
     d24:	00d58663          	beq	a1,a3,d30 <set_displays+0x4c>
     d28:	01079713          	slli	a4,a5,0x10
     d2c:	41075713          	srai	a4,a4,0x10
     d30:	040007b7          	lui	a5,0x4000
     d34:	00451513          	slli	a0,a0,0x4
     d38:	05078793          	addi	a5,a5,80 # 4000050 <_stack_end+0x3efdc10>
     d3c:	00f50533          	add	a0,a0,a5
     d40:	00e51023          	sh	a4,0(a0)
     d44:	00008067          	ret
     d48:	0c000793          	li	a5,192
     d4c:	00b00713          	li	a4,11
     d50:	08e59c63          	bne	a1,a4,de8 <set_displays+0x104>
     d54:	08800793          	li	a5,136
     d58:	fd1ff06f          	j	d28 <set_displays+0x44>
     d5c:	0c000793          	li	a5,192
     d60:	01a00693          	li	a3,26
     d64:	08c00713          	li	a4,140
     d68:	fcd584e3          	beq	a1,a3,d30 <set_displays+0x4c>
     d6c:	0080006f          	j	d74 <set_displays+0x90>
     d70:	0f900793          	li	a5,249
     d74:	01e00693          	li	a3,30
     d78:	0ce00713          	li	a4,206
     d7c:	fad58ae3          	beq	a1,a3,d30 <set_displays+0x4c>
     d80:	02200693          	li	a3,34
     d84:	08d00713          	li	a4,141
     d88:	fad584e3          	beq	a1,a3,d30 <set_displays+0x4c>
     d8c:	f79ff06f          	j	d04 <set_displays+0x20>
     d90:	00300713          	li	a4,3
     d94:	0b000793          	li	a5,176
     d98:	f6e58ce3          	beq	a1,a4,d10 <set_displays+0x2c>
     d9c:	00400713          	li	a4,4
     da0:	09900793          	li	a5,153
     da4:	f6e58ce3          	beq	a1,a4,d1c <set_displays+0x38>
     da8:	00500793          	li	a5,5
     dac:	04f58663          	beq	a1,a5,df8 <set_displays+0x114>
     db0:	00600713          	li	a4,6
     db4:	08200793          	li	a5,130
     db8:	f6e582e3          	beq	a1,a4,d1c <set_displays+0x38>
     dbc:	00700713          	li	a4,7
     dc0:	0f800793          	li	a5,248
     dc4:	f6e582e3          	beq	a1,a4,d28 <set_displays+0x44>
     dc8:	00800713          	li	a4,8
     dcc:	08000793          	li	a5,128
     dd0:	f4e58ce3          	beq	a1,a4,d28 <set_displays+0x44>
     dd4:	00900713          	li	a4,9
     dd8:	09000793          	li	a5,144
     ddc:	f4e586e3          	beq	a1,a4,d28 <set_displays+0x44>
     de0:	0ff00793          	li	a5,255
     de4:	f69ff06f          	j	d4c <set_displays+0x68>
     de8:	00f00713          	li	a4,15
     dec:	00e59a63          	bne	a1,a4,e00 <set_displays+0x11c>
     df0:	08600793          	li	a5,134
     df4:	f35ff06f          	j	d28 <set_displays+0x44>
     df8:	09200793          	li	a5,146
     dfc:	f2dff06f          	j	d28 <set_displays+0x44>
     e00:	01200693          	li	a3,18
     e04:	08900713          	li	a4,137
     e08:	f2d584e3          	beq	a1,a3,d30 <set_displays+0x4c>
     e0c:	01400693          	li	a3,20
     e10:	0e100713          	li	a4,225
     e14:	f0d58ee3          	beq	a1,a3,d30 <set_displays+0x4c>
     e18:	01600693          	li	a3,22
     e1c:	0c700713          	li	a4,199
     e20:	f0d588e3          	beq	a1,a3,d30 <set_displays+0x4c>
     e24:	f3dff06f          	j	d60 <set_displays+0x7c>

00000e28 <get_sw>:
     e28:	040007b7          	lui	a5,0x4000
     e2c:	0107a503          	lw	a0,16(a5) # 4000010 <_stack_end+0x3efdbd0>
     e30:	2ff57513          	andi	a0,a0,767
     e34:	00008067          	ret

00000e38 <get_btn>:
     e38:	040007b7          	lui	a5,0x4000
     e3c:	0d07a503          	lw	a0,208(a5) # 40000d0 <_stack_end+0x3efdc90>
     e40:	00157513          	andi	a0,a0,1
     e44:	00008067          	ret

00000e48 <makePayment>:
     e48:	fd010113          	addi	sp,sp,-48
     e4c:	fff00793          	li	a5,-1
     e50:	02112623          	sw	ra,44(sp)
     e54:	01312e23          	sw	s3,28(sp)
     e58:	02812423          	sw	s0,40(sp)
     e5c:	02912223          	sw	s1,36(sp)
     e60:	03212023          	sw	s2,32(sp)
     e64:	01412c23          	sw	s4,24(sp)
     e68:	01512a23          	sw	s5,20(sp)
     e6c:	01612823          	sw	s6,16(sp)
     e70:	01712623          	sw	s7,12(sp)
     e74:	04000837          	lui	a6,0x4000
     e78:	04f81823          	sh	a5,80(a6) # 4000050 <_stack_end+0x3efdc10>
     e7c:	040005b7          	lui	a1,0x4000
     e80:	06f59023          	sh	a5,96(a1) # 4000060 <_stack_end+0x3efdc20>
     e84:	04000637          	lui	a2,0x4000
     e88:	06f61823          	sh	a5,112(a2) # 4000070 <_stack_end+0x3efdc30>
     e8c:	040006b7          	lui	a3,0x4000
     e90:	08f69023          	sh	a5,128(a3) # 4000080 <_stack_end+0x3efdc40>
     e94:	04000737          	lui	a4,0x4000
     e98:	08f71823          	sh	a5,144(a4) # 4000090 <_stack_end+0x3efdc50>
     e9c:	04000537          	lui	a0,0x4000
     ea0:	0af51023          	sh	a5,160(a0) # 40000a0 <_stack_end+0x3efdc60>
     ea4:	01a00513          	li	a0,26
     ea8:	8cdff0ef          	jal	774 <set_displays.constprop.0>
     eac:	00b00593          	li	a1,11
     eb0:	00400513          	li	a0,4
     eb4:	e31ff0ef          	jal	ce4 <set_displays>
     eb8:	02200593          	li	a1,34
     ebc:	00300513          	li	a0,3
     ec0:	e25ff0ef          	jal	ce4 <set_displays>
     ec4:	00100513          	li	a0,1
     ec8:	c85ff0ef          	jal	b4c <set_displays.constprop.3>
     ecc:	040009b7          	lui	s3,0x4000
     ed0:	0d09a783          	lw	a5,208(s3) # 40000d0 <_stack_end+0x3efdc90>
     ed4:	0017f793          	andi	a5,a5,1
     ed8:	04079c63          	bnez	a5,f30 <makePayment+0xe8>
     edc:	04000a37          	lui	s4,0x4000
     ee0:	0d098993          	addi	s3,s3,208
     ee4:	010a0a13          	addi	s4,s4,16 # 4000010 <_stack_end+0x3efdbd0>
     ee8:	00a00a93          	li	s5,10
     eec:	06400913          	li	s2,100
     ef0:	000a2503          	lw	a0,0(s4)
     ef4:	2ff57513          	andi	a0,a0,767
     ef8:	035564b3          	rem	s1,a0,s5
     efc:	40950533          	sub	a0,a0,s1
     f00:	03256433          	rem	s0,a0,s2
     f04:	03544433          	div	s0,s0,s5
     f08:	40850533          	sub	a0,a0,s0
     f0c:	03254533          	div	a0,a0,s2
     f10:	9adff0ef          	jal	8bc <set_displays.constprop.1>
     f14:	00040513          	mv	a0,s0
     f18:	aedff0ef          	jal	a04 <set_displays.constprop.2>
     f1c:	00048513          	mv	a0,s1
     f20:	c2dff0ef          	jal	b4c <set_displays.constprop.3>
     f24:	0009a783          	lw	a5,0(s3)
     f28:	0017f793          	andi	a5,a5,1
     f2c:	fc0782e3          	beqz	a5,ef0 <makePayment+0xa8>
     f30:	06400513          	li	a0,100
     f34:	b28ff0ef          	jal	25c <delay>
     f38:	04000737          	lui	a4,0x4000
     f3c:	0d070713          	addi	a4,a4,208 # 40000d0 <_stack_end+0x3efdc90>
     f40:	00072783          	lw	a5,0(a4)
     f44:	0017f793          	andi	a5,a5,1
     f48:	fe078ce3          	beqz	a5,f40 <makePayment+0xf8>
     f4c:	040009b7          	lui	s3,0x4000
     f50:	0109a783          	lw	a5,16(s3) # 4000010 <_stack_end+0x3efdbd0>
     f54:	00a00913          	li	s2,10
     f58:	06400493          	li	s1,100
     f5c:	2ff7f793          	andi	a5,a5,767
     f60:	0327e533          	rem	a0,a5,s2
     f64:	00078413          	mv	s0,a5
     f68:	3e800b93          	li	s7,1000
     f6c:	00002b37          	lui	s6,0x2
     f70:	04000837          	lui	a6,0x4000
     f74:	28fb2e23          	sw	a5,668(s6) # 229c <payroll>
     f78:	fff00793          	li	a5,-1
     f7c:	04f81823          	sh	a5,80(a6) # 4000050 <_stack_end+0x3efdc10>
     f80:	040005b7          	lui	a1,0x4000
     f84:	04000637          	lui	a2,0x4000
     f88:	06f59023          	sh	a5,96(a1) # 4000060 <_stack_end+0x3efdc20>
     f8c:	06f61823          	sh	a5,112(a2) # 4000070 <_stack_end+0x3efdc30>
     f90:	040006b7          	lui	a3,0x4000
     f94:	08f69023          	sh	a5,128(a3) # 4000080 <_stack_end+0x3efdc40>
     f98:	04000737          	lui	a4,0x4000
     f9c:	08f71823          	sh	a5,144(a4) # 4000090 <_stack_end+0x3efdc50>
     fa0:	040008b7          	lui	a7,0x4000
     fa4:	0af89023          	sh	a5,160(a7) # 40000a0 <_stack_end+0x3efdc60>
     fa8:	40a40433          	sub	s0,s0,a0
     fac:	02946ab3          	rem	s5,s0,s1
     fb0:	90dff0ef          	jal	8bc <set_displays.constprop.1>
     fb4:	00300513          	li	a0,3
     fb8:	032acab3          	div	s5,s5,s2
     fbc:	41540433          	sub	s0,s0,s5
     fc0:	03746a33          	rem	s4,s0,s7
     fc4:	000a8593          	mv	a1,s5
     fc8:	d1dff0ef          	jal	ce4 <set_displays>
     fcc:	00400513          	li	a0,4
     fd0:	029a4a33          	div	s4,s4,s1
     fd4:	000a0593          	mv	a1,s4
     fd8:	d0dff0ef          	jal	ce4 <set_displays>
     fdc:	000027b7          	lui	a5,0x2
     fe0:	71078793          	addi	a5,a5,1808 # 2710 <odd+0x46c>
     fe4:	41440433          	sub	s0,s0,s4
     fe8:	02f46533          	rem	a0,s0,a5
     fec:	03754533          	div	a0,a0,s7
     ff0:	f84ff0ef          	jal	774 <set_displays.constprop.0>
     ff4:	00002537          	lui	a0,0x2
     ff8:	33450513          	addi	a0,a0,820 # 2334 <odd+0x90>
     ffc:	b2cff0ef          	jal	328 <print>
    1000:	29cb2503          	lw	a0,668(s6)
    1004:	b5cff0ef          	jal	360 <print_dec>
    1008:	00002537          	lui	a0,0x2
    100c:	34850513          	addi	a0,a0,840 # 2348 <odd+0xa4>
    1010:	b18ff0ef          	jal	328 <print>
    1014:	3e800513          	li	a0,1000
    1018:	a44ff0ef          	jal	25c <delay>
    101c:	0109a783          	lw	a5,16(s3)
    1020:	2ff7f793          	andi	a5,a5,767
    1024:	0327e9b3          	rem	s3,a5,s2
    1028:	413787b3          	sub	a5,a5,s3
    102c:	0297e433          	rem	s0,a5,s1
    1030:	03244433          	div	s0,s0,s2
    1034:	40878533          	sub	a0,a5,s0
    1038:	02954533          	div	a0,a0,s1
    103c:	881ff0ef          	jal	8bc <set_displays.constprop.1>
    1040:	00040513          	mv	a0,s0
    1044:	9c1ff0ef          	jal	a04 <set_displays.constprop.2>
    1048:	02812403          	lw	s0,40(sp)
    104c:	02c12083          	lw	ra,44(sp)
    1050:	02412483          	lw	s1,36(sp)
    1054:	02012903          	lw	s2,32(sp)
    1058:	01812a03          	lw	s4,24(sp)
    105c:	01412a83          	lw	s5,20(sp)
    1060:	01012b03          	lw	s6,16(sp)
    1064:	00c12b83          	lw	s7,12(sp)
    1068:	00098513          	mv	a0,s3
    106c:	01c12983          	lw	s3,28(sp)
    1070:	03010113          	addi	sp,sp,48
    1074:	ad9ff06f          	j	b4c <set_displays.constprop.3>

00001078 <displayBet>:
    1078:	ff010113          	addi	sp,sp,-16
    107c:	00112623          	sw	ra,12(sp)
    1080:	fff00793          	li	a5,-1
    1084:	04000837          	lui	a6,0x4000
    1088:	04f81823          	sh	a5,80(a6) # 4000050 <_stack_end+0x3efdc10>
    108c:	040005b7          	lui	a1,0x4000
    1090:	06f59023          	sh	a5,96(a1) # 4000060 <_stack_end+0x3efdc20>
    1094:	04000637          	lui	a2,0x4000
    1098:	06f61823          	sh	a5,112(a2) # 4000070 <_stack_end+0x3efdc30>
    109c:	040006b7          	lui	a3,0x4000
    10a0:	08f69023          	sh	a5,128(a3) # 4000080 <_stack_end+0x3efdc40>
    10a4:	04000737          	lui	a4,0x4000
    10a8:	08f71823          	sh	a5,144(a4) # 4000090 <_stack_end+0x3efdc50>
    10ac:	04000537          	lui	a0,0x4000
    10b0:	0af51023          	sh	a5,160(a0) # 40000a0 <_stack_end+0x3efdc60>
    10b4:	00800513          	li	a0,8
    10b8:	ebcff0ef          	jal	774 <set_displays.constprop.0>
    10bc:	00f00593          	li	a1,15
    10c0:	00400513          	li	a0,4
    10c4:	c21ff0ef          	jal	ce4 <set_displays>
    10c8:	00c12083          	lw	ra,12(sp)
    10cc:	01e00593          	li	a1,30
    10d0:	00300513          	li	a0,3
    10d4:	01010113          	addi	sp,sp,16
    10d8:	c0dff06f          	j	ce4 <set_displays>

000010dc <makeBet>:
    10dc:	fd010113          	addi	sp,sp,-48
    10e0:	02112623          	sw	ra,44(sp)
    10e4:	fff00793          	li	a5,-1
    10e8:	02912223          	sw	s1,36(sp)
    10ec:	03212023          	sw	s2,32(sp)
    10f0:	01312e23          	sw	s3,28(sp)
    10f4:	01412c23          	sw	s4,24(sp)
    10f8:	01512a23          	sw	s5,20(sp)
    10fc:	01612823          	sw	s6,16(sp)
    1100:	02812423          	sw	s0,40(sp)
    1104:	01712623          	sw	s7,12(sp)
    1108:	04000837          	lui	a6,0x4000
    110c:	04f81823          	sh	a5,80(a6) # 4000050 <_stack_end+0x3efdc10>
    1110:	040005b7          	lui	a1,0x4000
    1114:	06f59023          	sh	a5,96(a1) # 4000060 <_stack_end+0x3efdc20>
    1118:	04000637          	lui	a2,0x4000
    111c:	06f61823          	sh	a5,112(a2) # 4000070 <_stack_end+0x3efdc30>
    1120:	040006b7          	lui	a3,0x4000
    1124:	08f69023          	sh	a5,128(a3) # 4000080 <_stack_end+0x3efdc40>
    1128:	04000737          	lui	a4,0x4000
    112c:	08f71823          	sh	a5,144(a4) # 4000090 <_stack_end+0x3efdc50>
    1130:	04000537          	lui	a0,0x4000
    1134:	0af51023          	sh	a5,160(a0) # 40000a0 <_stack_end+0x3efdc60>
    1138:	00800513          	li	a0,8
    113c:	e38ff0ef          	jal	774 <set_displays.constprop.0>
    1140:	00f00593          	li	a1,15
    1144:	00400513          	li	a0,4
    1148:	b9dff0ef          	jal	ce4 <set_displays>
    114c:	01e00593          	li	a1,30
    1150:	00300513          	li	a0,3
    1154:	04000ab7          	lui	s5,0x4000
    1158:	040009b7          	lui	s3,0x4000
    115c:	b89ff0ef          	jal	ce4 <set_displays>
    1160:	00002a37          	lui	s4,0x2
    1164:	0d0a8a93          	addi	s5,s5,208 # 40000d0 <_stack_end+0x3efdc90>
    1168:	01098993          	addi	s3,s3,16 # 4000010 <_stack_end+0x3efdbd0>
    116c:	00002b37          	lui	s6,0x2
    1170:	00a00913          	li	s2,10
    1174:	06400493          	li	s1,100
    1178:	03c0006f          	j	11b4 <makeBet+0xd8>
    117c:	9acff0ef          	jal	328 <print>
    1180:	0009a503          	lw	a0,0(s3)
    1184:	2ff57513          	andi	a0,a0,767
    1188:	03256bb3          	rem	s7,a0,s2
    118c:	41750533          	sub	a0,a0,s7
    1190:	02956433          	rem	s0,a0,s1
    1194:	03244433          	div	s0,s0,s2
    1198:	40850533          	sub	a0,a0,s0
    119c:	02954533          	div	a0,a0,s1
    11a0:	f1cff0ef          	jal	8bc <set_displays.constprop.1>
    11a4:	00040513          	mv	a0,s0
    11a8:	85dff0ef          	jal	a04 <set_displays.constprop.2>
    11ac:	000b8513          	mv	a0,s7
    11b0:	99dff0ef          	jal	b4c <set_displays.constprop.3>
    11b4:	000aa783          	lw	a5,0(s5)
    11b8:	29ca2703          	lw	a4,668(s4) # 229c <payroll>
    11bc:	358b0513          	addi	a0,s6,856 # 2358 <odd+0xb4>
    11c0:	0017f793          	andi	a5,a5,1
    11c4:	fa078ee3          	beqz	a5,1180 <makeBet+0xa4>
    11c8:	0009a403          	lw	s0,0(s3)
    11cc:	2ff47413          	andi	s0,s0,767
    11d0:	fa8746e3          	blt	a4,s0,117c <makeBet+0xa0>
    11d4:	fff00793          	li	a5,-1
    11d8:	04000837          	lui	a6,0x4000
    11dc:	04f81823          	sh	a5,80(a6) # 4000050 <_stack_end+0x3efdc10>
    11e0:	040005b7          	lui	a1,0x4000
    11e4:	06f59023          	sh	a5,96(a1) # 4000060 <_stack_end+0x3efdc20>
    11e8:	04000637          	lui	a2,0x4000
    11ec:	06f61823          	sh	a5,112(a2) # 4000070 <_stack_end+0x3efdc30>
    11f0:	040006b7          	lui	a3,0x4000
    11f4:	08f69023          	sh	a5,128(a3) # 4000080 <_stack_end+0x3efdc40>
    11f8:	04000737          	lui	a4,0x4000
    11fc:	08f71823          	sh	a5,144(a4) # 4000090 <_stack_end+0x3efdc50>
    1200:	04000537          	lui	a0,0x4000
    1204:	0af51023          	sh	a5,160(a0) # 40000a0 <_stack_end+0x3efdc60>
    1208:	00002537          	lui	a0,0x2
    120c:	34c50513          	addi	a0,a0,844 # 234c <odd+0xa8>
    1210:	918ff0ef          	jal	328 <print>
    1214:	00040513          	mv	a0,s0
    1218:	948ff0ef          	jal	360 <print_dec>
    121c:	00002537          	lui	a0,0x2
    1220:	34850513          	addi	a0,a0,840 # 2348 <odd+0xa4>
    1224:	904ff0ef          	jal	328 <print>
    1228:	3e800513          	li	a0,1000
    122c:	830ff0ef          	jal	25c <delay>
    1230:	29ca2783          	lw	a5,668(s4)
    1234:	02c12083          	lw	ra,44(sp)
    1238:	00040513          	mv	a0,s0
    123c:	408787b3          	sub	a5,a5,s0
    1240:	02812403          	lw	s0,40(sp)
    1244:	28fa2e23          	sw	a5,668(s4)
    1248:	02412483          	lw	s1,36(sp)
    124c:	02012903          	lw	s2,32(sp)
    1250:	01c12983          	lw	s3,28(sp)
    1254:	01812a03          	lw	s4,24(sp)
    1258:	01412a83          	lw	s5,20(sp)
    125c:	01012b03          	lw	s6,16(sp)
    1260:	00c12b83          	lw	s7,12(sp)
    1264:	03010113          	addi	sp,sp,48
    1268:	00008067          	ret

0000126c <showPayroll>:
    126c:	fe010113          	addi	sp,sp,-32
    1270:	000027b7          	lui	a5,0x2
    1274:	00812c23          	sw	s0,24(sp)
    1278:	29c7a403          	lw	s0,668(a5) # 229c <payroll>
    127c:	00a00713          	li	a4,10
    1280:	06400793          	li	a5,100
    1284:	02e46533          	rem	a0,s0,a4
    1288:	01212823          	sw	s2,16(sp)
    128c:	01312623          	sw	s3,12(sp)
    1290:	3e800993          	li	s3,1000
    1294:	00912a23          	sw	s1,20(sp)
    1298:	00112e23          	sw	ra,28(sp)
    129c:	40a40433          	sub	s0,s0,a0
    12a0:	02f46933          	rem	s2,s0,a5
    12a4:	02e94933          	div	s2,s2,a4
    12a8:	41240433          	sub	s0,s0,s2
    12ac:	033464b3          	rem	s1,s0,s3
    12b0:	02f4c4b3          	div	s1,s1,a5
    12b4:	e08ff0ef          	jal	8bc <set_displays.constprop.1>
    12b8:	00090593          	mv	a1,s2
    12bc:	00300513          	li	a0,3
    12c0:	a25ff0ef          	jal	ce4 <set_displays>
    12c4:	00400513          	li	a0,4
    12c8:	00048593          	mv	a1,s1
    12cc:	a19ff0ef          	jal	ce4 <set_displays>
    12d0:	000027b7          	lui	a5,0x2
    12d4:	40940533          	sub	a0,s0,s1
    12d8:	71078793          	addi	a5,a5,1808 # 2710 <odd+0x46c>
    12dc:	02f56533          	rem	a0,a0,a5
    12e0:	01812403          	lw	s0,24(sp)
    12e4:	01c12083          	lw	ra,28(sp)
    12e8:	01412483          	lw	s1,20(sp)
    12ec:	01012903          	lw	s2,16(sp)
    12f0:	03354533          	div	a0,a0,s3
    12f4:	00c12983          	lw	s3,12(sp)
    12f8:	02010113          	addi	sp,sp,32
    12fc:	c78ff06f          	j	774 <set_displays.constprop.0>

00001300 <showPlus>:
    1300:	fc010113          	addi	sp,sp,-64
    1304:	00a00593          	li	a1,10
    1308:	01812c23          	sw	s8,24(sp)
    130c:	02b56c33          	rem	s8,a0,a1
    1310:	06400613          	li	a2,100
    1314:	01912a23          	sw	s9,20(sp)
    1318:	3e800693          	li	a3,1000
    131c:	01a12823          	sw	s10,16(sp)
    1320:	00002737          	lui	a4,0x2
    1324:	02912a23          	sw	s1,52(sp)
    1328:	71070713          	addi	a4,a4,1808 # 2710 <odd+0x46c>
    132c:	03212823          	sw	s2,48(sp)
    1330:	03312623          	sw	s3,44(sp)
    1334:	03412423          	sw	s4,40(sp)
    1338:	03512223          	sw	s5,36(sp)
    133c:	03612023          	sw	s6,32(sp)
    1340:	01712e23          	sw	s7,28(sp)
    1344:	04000b37          	lui	s6,0x4000
    1348:	04000bb7          	lui	s7,0x4000
    134c:	04000ab7          	lui	s5,0x4000
    1350:	04000a37          	lui	s4,0x4000
    1354:	040009b7          	lui	s3,0x4000
    1358:	04000937          	lui	s2,0x4000
    135c:	02812c23          	sw	s0,56(sp)
    1360:	01b12623          	sw	s11,12(sp)
    1364:	02112e23          	sw	ra,60(sp)
    1368:	00300d93          	li	s11,3
    136c:	050b8b93          	addi	s7,s7,80 # 4000050 <_stack_end+0x3efdc10>
    1370:	fff00413          	li	s0,-1
    1374:	060b0b13          	addi	s6,s6,96 # 4000060 <_stack_end+0x3efdc20>
    1378:	070a8a93          	addi	s5,s5,112 # 4000070 <_stack_end+0x3efdc30>
    137c:	080a0a13          	addi	s4,s4,128 # 4000080 <_stack_end+0x3efdc40>
    1380:	09098993          	addi	s3,s3,144 # 4000090 <_stack_end+0x3efdc50>
    1384:	0a090913          	addi	s2,s2,160 # 40000a0 <_stack_end+0x3efdc60>
    1388:	418507b3          	sub	a5,a0,s8
    138c:	02c7ecb3          	rem	s9,a5,a2
    1390:	02bcccb3          	div	s9,s9,a1
    1394:	419787b3          	sub	a5,a5,s9
    1398:	02d7ed33          	rem	s10,a5,a3
    139c:	02cd4d33          	div	s10,s10,a2
    13a0:	41a784b3          	sub	s1,a5,s10
    13a4:	02e4e4b3          	rem	s1,s1,a4
    13a8:	02d4c4b3          	div	s1,s1,a3
    13ac:	19000513          	li	a0,400
    13b0:	eadfe0ef          	jal	25c <delay>
    13b4:	008b9023          	sh	s0,0(s7)
    13b8:	008b1023          	sh	s0,0(s6)
    13bc:	008a9023          	sh	s0,0(s5)
    13c0:	008a1023          	sh	s0,0(s4)
    13c4:	00899023          	sh	s0,0(s3)
    13c8:	19000513          	li	a0,400
    13cc:	00891023          	sh	s0,0(s2)
    13d0:	e8dfe0ef          	jal	25c <delay>
    13d4:	000c0513          	mv	a0,s8
    13d8:	f74ff0ef          	jal	b4c <set_displays.constprop.3>
    13dc:	000c8513          	mv	a0,s9
    13e0:	e24ff0ef          	jal	a04 <set_displays.constprop.2>
    13e4:	000d0513          	mv	a0,s10
    13e8:	cd4ff0ef          	jal	8bc <set_displays.constprop.1>
    13ec:	00048593          	mv	a1,s1
    13f0:	00300513          	li	a0,3
    13f4:	8f1ff0ef          	jal	ce4 <set_displays>
    13f8:	02400593          	li	a1,36
    13fc:	00400513          	li	a0,4
    1400:	8e5ff0ef          	jal	ce4 <set_displays>
    1404:	02500513          	li	a0,37
    1408:	fffd8d93          	addi	s11,s11,-1
    140c:	b68ff0ef          	jal	774 <set_displays.constprop.0>
    1410:	f80d9ee3          	bnez	s11,13ac <showPlus+0xac>
    1414:	03812403          	lw	s0,56(sp)
    1418:	03c12083          	lw	ra,60(sp)
    141c:	03412483          	lw	s1,52(sp)
    1420:	03012903          	lw	s2,48(sp)
    1424:	02c12983          	lw	s3,44(sp)
    1428:	02812a03          	lw	s4,40(sp)
    142c:	02412a83          	lw	s5,36(sp)
    1430:	02012b03          	lw	s6,32(sp)
    1434:	01c12b83          	lw	s7,28(sp)
    1438:	01812c03          	lw	s8,24(sp)
    143c:	01412c83          	lw	s9,20(sp)
    1440:	01012d03          	lw	s10,16(sp)
    1444:	00c12d83          	lw	s11,12(sp)
    1448:	3e800513          	li	a0,1000
    144c:	04010113          	addi	sp,sp,64
    1450:	e0dfe06f          	j	25c <delay>

00001454 <showMinus>:
    1454:	fc010113          	addi	sp,sp,-64
    1458:	00a00593          	li	a1,10
    145c:	01812c23          	sw	s8,24(sp)
    1460:	02b56c33          	rem	s8,a0,a1
    1464:	06400613          	li	a2,100
    1468:	01912a23          	sw	s9,20(sp)
    146c:	3e800693          	li	a3,1000
    1470:	01a12823          	sw	s10,16(sp)
    1474:	00002737          	lui	a4,0x2
    1478:	02912a23          	sw	s1,52(sp)
    147c:	71070713          	addi	a4,a4,1808 # 2710 <odd+0x46c>
    1480:	03212823          	sw	s2,48(sp)
    1484:	03312623          	sw	s3,44(sp)
    1488:	03412423          	sw	s4,40(sp)
    148c:	03512223          	sw	s5,36(sp)
    1490:	03612023          	sw	s6,32(sp)
    1494:	01712e23          	sw	s7,28(sp)
    1498:	04000b37          	lui	s6,0x4000
    149c:	04000bb7          	lui	s7,0x4000
    14a0:	04000ab7          	lui	s5,0x4000
    14a4:	04000a37          	lui	s4,0x4000
    14a8:	040009b7          	lui	s3,0x4000
    14ac:	04000937          	lui	s2,0x4000
    14b0:	02812c23          	sw	s0,56(sp)
    14b4:	01b12623          	sw	s11,12(sp)
    14b8:	02112e23          	sw	ra,60(sp)
    14bc:	00300d93          	li	s11,3
    14c0:	050b8b93          	addi	s7,s7,80 # 4000050 <_stack_end+0x3efdc10>
    14c4:	fff00413          	li	s0,-1
    14c8:	060b0b13          	addi	s6,s6,96 # 4000060 <_stack_end+0x3efdc20>
    14cc:	070a8a93          	addi	s5,s5,112 # 4000070 <_stack_end+0x3efdc30>
    14d0:	080a0a13          	addi	s4,s4,128 # 4000080 <_stack_end+0x3efdc40>
    14d4:	09098993          	addi	s3,s3,144 # 4000090 <_stack_end+0x3efdc50>
    14d8:	0a090913          	addi	s2,s2,160 # 40000a0 <_stack_end+0x3efdc60>
    14dc:	418507b3          	sub	a5,a0,s8
    14e0:	02c7ecb3          	rem	s9,a5,a2
    14e4:	02bcccb3          	div	s9,s9,a1
    14e8:	419787b3          	sub	a5,a5,s9
    14ec:	02d7ed33          	rem	s10,a5,a3
    14f0:	02cd4d33          	div	s10,s10,a2
    14f4:	41a784b3          	sub	s1,a5,s10
    14f8:	02e4e4b3          	rem	s1,s1,a4
    14fc:	02d4c4b3          	div	s1,s1,a3
    1500:	19000513          	li	a0,400
    1504:	d59fe0ef          	jal	25c <delay>
    1508:	008b9023          	sh	s0,0(s7)
    150c:	008b1023          	sh	s0,0(s6)
    1510:	008a9023          	sh	s0,0(s5)
    1514:	008a1023          	sh	s0,0(s4)
    1518:	00899023          	sh	s0,0(s3)
    151c:	19000513          	li	a0,400
    1520:	00891023          	sh	s0,0(s2)
    1524:	d39fe0ef          	jal	25c <delay>
    1528:	000c0513          	mv	a0,s8
    152c:	e20ff0ef          	jal	b4c <set_displays.constprop.3>
    1530:	000c8513          	mv	a0,s9
    1534:	cd0ff0ef          	jal	a04 <set_displays.constprop.2>
    1538:	000d0513          	mv	a0,s10
    153c:	b80ff0ef          	jal	8bc <set_displays.constprop.1>
    1540:	00048593          	mv	a1,s1
    1544:	00300513          	li	a0,3
    1548:	f9cff0ef          	jal	ce4 <set_displays>
    154c:	02400593          	li	a1,36
    1550:	00400513          	li	a0,4
    1554:	fffd8d93          	addi	s11,s11,-1
    1558:	f8cff0ef          	jal	ce4 <set_displays>
    155c:	fa0d92e3          	bnez	s11,1500 <showMinus+0xac>
    1560:	03812403          	lw	s0,56(sp)
    1564:	03c12083          	lw	ra,60(sp)
    1568:	03412483          	lw	s1,52(sp)
    156c:	03012903          	lw	s2,48(sp)
    1570:	02c12983          	lw	s3,44(sp)
    1574:	02812a03          	lw	s4,40(sp)
    1578:	02412a83          	lw	s5,36(sp)
    157c:	02012b03          	lw	s6,32(sp)
    1580:	01c12b83          	lw	s7,28(sp)
    1584:	01812c03          	lw	s8,24(sp)
    1588:	01412c83          	lw	s9,20(sp)
    158c:	01012d03          	lw	s10,16(sp)
    1590:	00c12d83          	lw	s11,12(sp)
    1594:	3e800513          	li	a0,1000
    1598:	04010113          	addi	sp,sp,64
    159c:	cc1fe06f          	j	25c <delay>

000015a0 <rouletteGameRun>:
    15a0:	00002537          	lui	a0,0x2
    15a4:	fc010113          	addi	sp,sp,-64
    15a8:	36c50513          	addi	a0,a0,876 # 236c <odd+0xc8>
    15ac:	01b12623          	sw	s11,12(sp)
    15b0:	02112e23          	sw	ra,60(sp)
    15b4:	00002db7          	lui	s11,0x2
    15b8:	d71fe0ef          	jal	328 <print>
    15bc:	298da783          	lw	a5,664(s11) # 2298 <resetGame>
    15c0:	1a079263          	bnez	a5,1764 <rouletteGameRun+0x1c4>
    15c4:	03612023          	sw	s6,32(sp)
    15c8:	01712e23          	sw	s7,28(sp)
    15cc:	01812c23          	sw	s8,24(sp)
    15d0:	01912a23          	sw	s9,20(sp)
    15d4:	01a12823          	sw	s10,16(sp)
    15d8:	04000cb7          	lui	s9,0x4000
    15dc:	04000d37          	lui	s10,0x4000
    15e0:	04000c37          	lui	s8,0x4000
    15e4:	04000bb7          	lui	s7,0x4000
    15e8:	04000b37          	lui	s6,0x4000
    15ec:	03512223          	sw	s5,36(sp)
    15f0:	02812c23          	sw	s0,56(sp)
    15f4:	02912a23          	sw	s1,52(sp)
    15f8:	03212823          	sw	s2,48(sp)
    15fc:	03312623          	sw	s3,44(sp)
    1600:	03412423          	sw	s4,40(sp)
    1604:	00002ab7          	lui	s5,0x2
    1608:	050d0d13          	addi	s10,s10,80 # 4000050 <_stack_end+0x3efdc10>
    160c:	060c8c93          	addi	s9,s9,96 # 4000060 <_stack_end+0x3efdc20>
    1610:	070c0c13          	addi	s8,s8,112 # 4000070 <_stack_end+0x3efdc30>
    1614:	080b8b93          	addi	s7,s7,128 # 4000080 <_stack_end+0x3efdc40>
    1618:	090b0b13          	addi	s6,s6,144 # 4000090 <_stack_end+0x3efdc50>
    161c:	000027b7          	lui	a5,0x2
    1620:	38078513          	addi	a0,a5,896 # 2380 <odd+0xdc>
    1624:	d05fe0ef          	jal	328 <print>
    1628:	3e800513          	li	a0,1000
    162c:	c31fe0ef          	jal	25c <delay>
    1630:	000027b7          	lui	a5,0x2
    1634:	38c78513          	addi	a0,a5,908 # 238c <odd+0xe8>
    1638:	cf1fe0ef          	jal	328 <print>
    163c:	aa1ff0ef          	jal	10dc <makeBet>
    1640:	02d000ef          	jal	1e6c <roulette>
    1644:	00050413          	mv	s0,a0
    1648:	12a05a63          	blez	a0,177c <rouletteGameRun+0x1dc>
    164c:	cb5ff0ef          	jal	1300 <showPlus>
    1650:	29caa783          	lw	a5,668(s5) # 229c <payroll>
    1654:	00002737          	lui	a4,0x2
    1658:	39870513          	addi	a0,a4,920 # 2398 <odd+0xf4>
    165c:	008787b3          	add	a5,a5,s0
    1660:	28faae23          	sw	a5,668(s5)
    1664:	cc5fe0ef          	jal	328 <print>
    1668:	00040513          	mv	a0,s0
    166c:	cf5fe0ef          	jal	360 <print_dec>
    1670:	000027b7          	lui	a5,0x2
    1674:	34878513          	addi	a0,a5,840 # 2348 <odd+0xa4>
    1678:	cb1fe0ef          	jal	328 <print>
    167c:	000027b7          	lui	a5,0x2
    1680:	3b078513          	addi	a0,a5,944 # 23b0 <odd+0x10c>
    1684:	ca5fe0ef          	jal	328 <print>
    1688:	29caa403          	lw	s0,668(s5)
    168c:	00a00513          	li	a0,10
    1690:	06400593          	li	a1,100
    1694:	02a46a33          	rem	s4,s0,a0
    1698:	3e800613          	li	a2,1000
    169c:	00002737          	lui	a4,0x2
    16a0:	71070713          	addi	a4,a4,1808 # 2710 <odd+0x46c>
    16a4:	fff00793          	li	a5,-1
    16a8:	00fd1023          	sh	a5,0(s10)
    16ac:	00fc9023          	sh	a5,0(s9)
    16b0:	00fc1023          	sh	a5,0(s8)
    16b4:	00fb9023          	sh	a5,0(s7)
    16b8:	040006b7          	lui	a3,0x4000
    16bc:	00fb1023          	sh	a5,0(s6)
    16c0:	040009b7          	lui	s3,0x4000
    16c4:	0d098993          	addi	s3,s3,208 # 40000d0 <_stack_end+0x3efdc90>
    16c8:	0af69023          	sh	a5,160(a3) # 40000a0 <_stack_end+0x3efdc60>
    16cc:	41440433          	sub	s0,s0,s4
    16d0:	02b46933          	rem	s2,s0,a1
    16d4:	02a94933          	div	s2,s2,a0
    16d8:	41240433          	sub	s0,s0,s2
    16dc:	02c464b3          	rem	s1,s0,a2
    16e0:	02b4c4b3          	div	s1,s1,a1
    16e4:	40940433          	sub	s0,s0,s1
    16e8:	02e46433          	rem	s0,s0,a4
    16ec:	02c44433          	div	s0,s0,a2
    16f0:	000a0513          	mv	a0,s4
    16f4:	9c8ff0ef          	jal	8bc <set_displays.constprop.1>
    16f8:	00090593          	mv	a1,s2
    16fc:	00300513          	li	a0,3
    1700:	de4ff0ef          	jal	ce4 <set_displays>
    1704:	00048593          	mv	a1,s1
    1708:	00400513          	li	a0,4
    170c:	dd8ff0ef          	jal	ce4 <set_displays>
    1710:	00040513          	mv	a0,s0
    1714:	860ff0ef          	jal	774 <set_displays.constprop.0>
    1718:	0009a783          	lw	a5,0(s3)
    171c:	0017f793          	andi	a5,a5,1
    1720:	fc0788e3          	beqz	a5,16f0 <rouletteGameRun+0x150>
    1724:	000027b7          	lui	a5,0x2
    1728:	3c078513          	addi	a0,a5,960 # 23c0 <odd+0x11c>
    172c:	bfdfe0ef          	jal	328 <print>
    1730:	298da783          	lw	a5,664(s11)
    1734:	ee0784e3          	beqz	a5,161c <rouletteGameRun+0x7c>
    1738:	03812403          	lw	s0,56(sp)
    173c:	03412483          	lw	s1,52(sp)
    1740:	03012903          	lw	s2,48(sp)
    1744:	02c12983          	lw	s3,44(sp)
    1748:	02812a03          	lw	s4,40(sp)
    174c:	02412a83          	lw	s5,36(sp)
    1750:	02012b03          	lw	s6,32(sp)
    1754:	01c12b83          	lw	s7,28(sp)
    1758:	01812c03          	lw	s8,24(sp)
    175c:	01412c83          	lw	s9,20(sp)
    1760:	01012d03          	lw	s10,16(sp)
    1764:	03c12083          	lw	ra,60(sp)
    1768:	040007b7          	lui	a5,0x4000
    176c:	0007a023          	sw	zero,0(a5) # 4000000 <_stack_end+0x3efdbc0>
    1770:	00c12d83          	lw	s11,12(sp)
    1774:	04010113          	addi	sp,sp,64
    1778:	00008067          	ret
    177c:	000027b7          	lui	a5,0x2
    1780:	3a478513          	addi	a0,a5,932 # 23a4 <odd+0x100>
    1784:	ba5fe0ef          	jal	328 <print>
    1788:	ef5ff06f          	j	167c <rouletteGameRun+0xdc>

0000178c <letsPlay>:
    178c:	fd010113          	addi	sp,sp,-48
    1790:	03212023          	sw	s2,32(sp)
    1794:	01312e23          	sw	s3,28(sp)
    1798:	01412c23          	sw	s4,24(sp)
    179c:	01512a23          	sw	s5,20(sp)
    17a0:	01612823          	sw	s6,16(sp)
    17a4:	01712623          	sw	s7,12(sp)
    17a8:	01812423          	sw	s8,8(sp)
    17ac:	04000bb7          	lui	s7,0x4000
    17b0:	04000b37          	lui	s6,0x4000
    17b4:	04000ab7          	lui	s5,0x4000
    17b8:	04000a37          	lui	s4,0x4000
    17bc:	040009b7          	lui	s3,0x4000
    17c0:	04000937          	lui	s2,0x4000
    17c4:	04000c37          	lui	s8,0x4000
    17c8:	02812423          	sw	s0,40(sp)
    17cc:	01912223          	sw	s9,4(sp)
    17d0:	02112623          	sw	ra,44(sp)
    17d4:	02912223          	sw	s1,36(sp)
    17d8:	00002cb7          	lui	s9,0x2
    17dc:	050b8b93          	addi	s7,s7,80 # 4000050 <_stack_end+0x3efdc10>
    17e0:	fff00413          	li	s0,-1
    17e4:	060b0b13          	addi	s6,s6,96 # 4000060 <_stack_end+0x3efdc20>
    17e8:	070a8a93          	addi	s5,s5,112 # 4000070 <_stack_end+0x3efdc30>
    17ec:	080a0a13          	addi	s4,s4,128 # 4000080 <_stack_end+0x3efdc40>
    17f0:	09098993          	addi	s3,s3,144 # 4000090 <_stack_end+0x3efdc50>
    17f4:	0a090913          	addi	s2,s2,160 # 40000a0 <_stack_end+0x3efdc60>
    17f8:	010c0c13          	addi	s8,s8,16 # 4000010 <_stack_end+0x3efdbd0>
    17fc:	040004b7          	lui	s1,0x4000
    1800:	0d048493          	addi	s1,s1,208 # 40000d0 <_stack_end+0x3efdc90>
    1804:	008b9023          	sh	s0,0(s7)
    1808:	008b1023          	sh	s0,0(s6)
    180c:	008a9023          	sh	s0,0(s5)
    1810:	008a1023          	sh	s0,0(s4)
    1814:	00899023          	sh	s0,0(s3)
    1818:	00100513          	li	a0,1
    181c:	00891023          	sh	s0,0(s2)
    1820:	f55fe0ef          	jal	774 <set_displays.constprop.0>
    1824:	00200513          	li	a0,2
    1828:	b24ff0ef          	jal	b4c <set_displays.constprop.3>
    182c:	0004a783          	lw	a5,0(s1)
    1830:	0017f793          	andi	a5,a5,1
    1834:	fc0788e3          	beqz	a5,1804 <letsPlay+0x78>
    1838:	06400513          	li	a0,100
    183c:	a21fe0ef          	jal	25c <delay>
    1840:	000c2783          	lw	a5,0(s8)
    1844:	00100713          	li	a4,1
    1848:	2ff7f793          	andi	a5,a5,767
    184c:	00e79463          	bne	a5,a4,1854 <letsPlay+0xc8>
    1850:	d51ff0ef          	jal	15a0 <rouletteGameRun>
    1854:	000c2783          	lw	a5,0(s8)
    1858:	280cac23          	sw	zero,664(s9) # 2298 <resetGame>
    185c:	fa1ff06f          	j	17fc <letsPlay+0x70>

00001860 <handle_interrupt>:
    1860:	01057793          	andi	a5,a0,16
    1864:	00078a63          	beqz	a5,1878 <handle_interrupt+0x18>
    1868:	040007b7          	lui	a5,0x4000
    186c:	0207d703          	lhu	a4,32(a5) # 4000020 <_stack_end+0x3efdbe0>
    1870:	00e77713          	andi	a4,a4,14
    1874:	02e79023          	sh	a4,32(a5)
    1878:	01100793          	li	a5,17
    187c:	00f50863          	beq	a0,a5,188c <handle_interrupt+0x2c>
    1880:	01200793          	li	a5,18
    1884:	04f50063          	beq	a0,a5,18c4 <handle_interrupt+0x64>
    1888:	00008067          	ret
    188c:	ff010113          	addi	sp,sp,-16
    1890:	040007b7          	lui	a5,0x4000
    1894:	00812423          	sw	s0,8(sp)
    1898:	01c7a403          	lw	s0,28(a5) # 400001c <_stack_end+0x3efdbdc>
    189c:	00112623          	sw	ra,12(sp)
    18a0:	06400513          	li	a0,100
    18a4:	0087ae23          	sw	s0,28(a5)
    18a8:	20047413          	andi	s0,s0,512
    18ac:	9b1fe0ef          	jal	25c <delay>
    18b0:	02041463          	bnez	s0,18d8 <handle_interrupt+0x78>
    18b4:	00c12083          	lw	ra,12(sp)
    18b8:	00812403          	lw	s0,8(sp)
    18bc:	01010113          	addi	sp,sp,16
    18c0:	00008067          	ret
    18c4:	040007b7          	lui	a5,0x4000
    18c8:	0dc7a703          	lw	a4,220(a5) # 40000dc <_stack_end+0x3efdc9c>
    18cc:	06400513          	li	a0,100
    18d0:	0ce7ae23          	sw	a4,220(a5)
    18d4:	989fe06f          	j	25c <delay>
    18d8:	00002537          	lui	a0,0x2
    18dc:	3cc50513          	addi	a0,a0,972 # 23cc <odd+0x128>
    18e0:	a49fe0ef          	jal	328 <print>
    18e4:	000027b7          	lui	a5,0x2
    18e8:	00100713          	li	a4,1
    18ec:	28e7ac23          	sw	a4,664(a5) # 2298 <resetGame>
    18f0:	fc5ff06f          	j	18b4 <handle_interrupt+0x54>

000018f4 <init>:
    18f4:	ffffc6b7          	lui	a3,0xffffc
    18f8:	040007b7          	lui	a5,0x4000
    18fc:	6bf68693          	addi	a3,a3,1727 # ffffc6bf <_stack_end+0xffefa27f>
    1900:	02d79423          	sh	a3,40(a5) # 4000028 <_stack_end+0x3efdbe8>
    1904:	04000737          	lui	a4,0x4000
    1908:	02d00693          	li	a3,45
    190c:	02d71623          	sh	a3,44(a4) # 400002c <_stack_end+0x3efdbec>
    1910:	040007b7          	lui	a5,0x4000
    1914:	00700693          	li	a3,7
    1918:	02d79223          	sh	a3,36(a5) # 4000024 <_stack_end+0x3efdbe4>
    191c:	04000737          	lui	a4,0x4000
    1920:	20000693          	li	a3,512
    1924:	00d72c23          	sw	a3,24(a4) # 4000018 <_stack_end+0x3efdbd8>
    1928:	040007b7          	lui	a5,0x4000
    192c:	00100713          	li	a4,1
    1930:	0ce7ac23          	sw	a4,216(a5) # 40000d8 <_stack_end+0x3efdc98>
    1934:	841fe06f          	j	174 <enable_interrupts>

00001938 <main>:
    1938:	ff010113          	addi	sp,sp,-16
    193c:	ffffc6b7          	lui	a3,0xffffc
    1940:	00112623          	sw	ra,12(sp)
    1944:	040007b7          	lui	a5,0x4000
    1948:	6bf68693          	addi	a3,a3,1727 # ffffc6bf <_stack_end+0xffefa27f>
    194c:	02d79423          	sh	a3,40(a5) # 4000028 <_stack_end+0x3efdbe8>
    1950:	04000737          	lui	a4,0x4000
    1954:	02d00693          	li	a3,45
    1958:	02d71623          	sh	a3,44(a4) # 400002c <_stack_end+0x3efdbec>
    195c:	040007b7          	lui	a5,0x4000
    1960:	00700693          	li	a3,7
    1964:	02d79223          	sh	a3,36(a5) # 4000024 <_stack_end+0x3efdbe4>
    1968:	04000737          	lui	a4,0x4000
    196c:	20000693          	li	a3,512
    1970:	00d72c23          	sw	a3,24(a4) # 4000018 <_stack_end+0x3efdbd8>
    1974:	040007b7          	lui	a5,0x4000
    1978:	00100713          	li	a4,1
    197c:	0ce7ac23          	sw	a4,216(a5) # 40000d8 <_stack_end+0x3efdc98>
    1980:	ff4fe0ef          	jal	174 <enable_interrupts>
    1984:	fff00793          	li	a5,-1
    1988:	04000837          	lui	a6,0x4000
    198c:	04f81823          	sh	a5,80(a6) # 4000050 <_stack_end+0x3efdc10>
    1990:	040005b7          	lui	a1,0x4000
    1994:	06f59023          	sh	a5,96(a1) # 4000060 <_stack_end+0x3efdc20>
    1998:	04000637          	lui	a2,0x4000
    199c:	06f61823          	sh	a5,112(a2) # 4000070 <_stack_end+0x3efdc30>
    19a0:	040006b7          	lui	a3,0x4000
    19a4:	04000737          	lui	a4,0x4000
    19a8:	08f69023          	sh	a5,128(a3) # 4000080 <_stack_end+0x3efdc40>
    19ac:	08f71823          	sh	a5,144(a4) # 4000090 <_stack_end+0x3efdc50>
    19b0:	04000537          	lui	a0,0x4000
    19b4:	0af51023          	sh	a5,160(a0) # 40000a0 <_stack_end+0x3efdc60>
    19b8:	02400513          	li	a0,36
    19bc:	990ff0ef          	jal	b4c <set_displays.constprop.3>
    19c0:	02400513          	li	a0,36
    19c4:	840ff0ef          	jal	a04 <set_displays.constprop.2>
    19c8:	00100513          	li	a0,1
    19cc:	ef1fe0ef          	jal	8bc <set_displays.constprop.1>
    19d0:	01200593          	li	a1,18
    19d4:	00300513          	li	a0,3
    19d8:	b0cff0ef          	jal	ce4 <set_displays>
    19dc:	02400593          	li	a1,36
    19e0:	00400513          	li	a0,4
    19e4:	b00ff0ef          	jal	ce4 <set_displays>
    19e8:	02400513          	li	a0,36
    19ec:	d89fe0ef          	jal	774 <set_displays.constprop.0>
    19f0:	04000737          	lui	a4,0x4000
    19f4:	0d070713          	addi	a4,a4,208 # 40000d0 <_stack_end+0x3efdc90>
    19f8:	00072783          	lw	a5,0(a4)
    19fc:	0017f793          	andi	a5,a5,1
    1a00:	fe078ce3          	beqz	a5,19f8 <main+0xc0>
    1a04:	06400513          	li	a0,100
    1a08:	855fe0ef          	jal	25c <delay>
    1a0c:	c3cff0ef          	jal	e48 <makePayment>
    1a10:	d7dff0ef          	jal	178c <letsPlay>

00001a14 <pickBets>:
    1a14:	ff010113          	addi	sp,sp,-16
    1a18:	00112623          	sw	ra,12(sp)
    1a1c:	00812423          	sw	s0,8(sp)
    1a20:	00912223          	sw	s1,4(sp)
    1a24:	a88ff0ef          	jal	cac <reset_disp>
    1a28:	00000593          	li	a1,0
    1a2c:	00500513          	li	a0,5
    1a30:	ab4ff0ef          	jal	ce4 <set_displays>
    1a34:	00100593          	li	a1,1
    1a38:	00400513          	li	a0,4
    1a3c:	aa8ff0ef          	jal	ce4 <set_displays>
    1a40:	00f00593          	li	a1,15
    1a44:	00100513          	li	a0,1
    1a48:	a9cff0ef          	jal	ce4 <set_displays>
    1a4c:	00000513          	li	a0,0
    1a50:	00200593          	li	a1,2
    1a54:	a90ff0ef          	jal	ce4 <set_displays>
    1a58:	1f400513          	li	a0,500
    1a5c:	801fe0ef          	jal	25c <delay>
    1a60:	bd8ff0ef          	jal	e38 <get_btn>
    1a64:	fe050ee3          	beqz	a0,1a60 <pickBets+0x4c>
    1a68:	bc0ff0ef          	jal	e28 <get_sw>
    1a6c:	00100793          	li	a5,1
    1a70:	00200713          	li	a4,2
    1a74:	10f50863          	beq	a0,a5,1b84 <pickBets+0x170>
    1a78:	0ce51a63          	bne	a0,a4,1b4c <pickBets+0x138>
    1a7c:	00002737          	lui	a4,0x2
    1a80:	2af72023          	sw	a5,672(a4) # 22a0 <even>
    1a84:	000024b7          	lui	s1,0x2
    1a88:	00002437          	lui	s0,0x2
    1a8c:	3d840513          	addi	a0,s0,984 # 23d8 <odd+0x134>
    1a90:	899fe0ef          	jal	328 <print>
    1a94:	2a44a703          	lw	a4,676(s1) # 22a4 <odd>
    1a98:	00100793          	li	a5,1
    1a9c:	10f70463          	beq	a4,a5,1ba4 <pickBets+0x190>
    1aa0:	00002737          	lui	a4,0x2
    1aa4:	2a072703          	lw	a4,672(a4) # 22a0 <even>
    1aa8:	10f70663          	beq	a4,a5,1bb4 <pickBets+0x1a0>
    1aac:	00002537          	lui	a0,0x2
    1ab0:	3f850513          	addi	a0,a0,1016 # 23f8 <odd+0x154>
    1ab4:	875fe0ef          	jal	328 <print>
    1ab8:	9f4ff0ef          	jal	cac <reset_disp>
    1abc:	00100593          	li	a1,1
    1ac0:	00500513          	li	a0,5
    1ac4:	a20ff0ef          	jal	ce4 <set_displays>
    1ac8:	02400593          	li	a1,36
    1acc:	00400513          	li	a0,4
    1ad0:	a14ff0ef          	jal	ce4 <set_displays>
    1ad4:	00900593          	li	a1,9
    1ad8:	00300513          	li	a0,3
    1adc:	a08ff0ef          	jal	ce4 <set_displays>
    1ae0:	00000513          	li	a0,0
    1ae4:	00000593          	li	a1,0
    1ae8:	9fcff0ef          	jal	ce4 <set_displays>
    1aec:	1f400513          	li	a0,500
    1af0:	f6cfe0ef          	jal	25c <delay>
    1af4:	b44ff0ef          	jal	e38 <get_btn>
    1af8:	fe050ee3          	beqz	a0,1af4 <pickBets+0xe0>
    1afc:	b2cff0ef          	jal	e28 <get_sw>
    1b00:	00900793          	li	a5,9
    1b04:	20000713          	li	a4,512
    1b08:	06a7c663          	blt	a5,a0,1b74 <pickBets+0x160>
    1b0c:	000024b7          	lui	s1,0x2
    1b10:	28a4aa23          	sw	a0,660(s1) # 2294 <num>
    1b14:	00050713          	mv	a4,a0
    1b18:	00900793          	li	a5,9
    1b1c:	02e7ce63          	blt	a5,a4,1b58 <pickBets+0x144>
    1b20:	3d840513          	addi	a0,s0,984
    1b24:	805fe0ef          	jal	328 <print>
    1b28:	2944a503          	lw	a0,660(s1)
    1b2c:	835fe0ef          	jal	360 <print_dec>
    1b30:	00812403          	lw	s0,8(sp)
    1b34:	00c12083          	lw	ra,12(sp)
    1b38:	00412483          	lw	s1,4(sp)
    1b3c:	00002537          	lui	a0,0x2
    1b40:	34850513          	addi	a0,a0,840 # 2348 <odd+0xa4>
    1b44:	01010113          	addi	sp,sp,16
    1b48:	fe0fe06f          	j	328 <print>
    1b4c:	f0051ae3          	bnez	a0,1a60 <pickBets+0x4c>
    1b50:	000024b7          	lui	s1,0x2
    1b54:	f35ff06f          	j	1a88 <pickBets+0x74>
    1b58:	00812403          	lw	s0,8(sp)
    1b5c:	00c12083          	lw	ra,12(sp)
    1b60:	00412483          	lw	s1,4(sp)
    1b64:	00002537          	lui	a0,0x2
    1b68:	40050513          	addi	a0,a0,1024 # 2400 <odd+0x15c>
    1b6c:	01010113          	addi	sp,sp,16
    1b70:	fb8fe06f          	j	328 <print>
    1b74:	f8e510e3          	bne	a0,a4,1af4 <pickBets+0xe0>
    1b78:	000024b7          	lui	s1,0x2
    1b7c:	2944a703          	lw	a4,660(s1) # 2294 <num>
    1b80:	f99ff06f          	j	1b18 <pickBets+0x104>
    1b84:	000024b7          	lui	s1,0x2
    1b88:	00002437          	lui	s0,0x2
    1b8c:	2aa4a223          	sw	a0,676(s1) # 22a4 <odd>
    1b90:	3d840513          	addi	a0,s0,984 # 23d8 <odd+0x134>
    1b94:	f94fe0ef          	jal	328 <print>
    1b98:	2a44a703          	lw	a4,676(s1)
    1b9c:	00100793          	li	a5,1
    1ba0:	f0f710e3          	bne	a4,a5,1aa0 <pickBets+0x8c>
    1ba4:	00002537          	lui	a0,0x2
    1ba8:	3e850513          	addi	a0,a0,1000 # 23e8 <odd+0x144>
    1bac:	f7cfe0ef          	jal	328 <print>
    1bb0:	f09ff06f          	j	1ab8 <pickBets+0xa4>
    1bb4:	00002537          	lui	a0,0x2
    1bb8:	3f050513          	addi	a0,a0,1008 # 23f0 <odd+0x14c>
    1bbc:	f6cfe0ef          	jal	328 <print>
    1bc0:	ef9ff06f          	j	1ab8 <pickBets+0xa4>

00001bc4 <spinWheel>:
    1bc4:	fd010113          	addi	sp,sp,-48
    1bc8:	00100513          	li	a0,1
    1bcc:	02112623          	sw	ra,44(sp)
    1bd0:	02812423          	sw	s0,40(sp)
    1bd4:	02912223          	sw	s1,36(sp)
    1bd8:	03212023          	sw	s2,32(sp)
    1bdc:	01312e23          	sw	s3,28(sp)
    1be0:	01412c23          	sw	s4,24(sp)
    1be4:	01512a23          	sw	s5,20(sp)
    1be8:	01612823          	sw	s6,16(sp)
    1bec:	01712623          	sw	s7,12(sp)
    1bf0:	01812423          	sw	s8,8(sp)
    1bf4:	01912223          	sw	s9,4(sp)
    1bf8:	01a12023          	sw	s10,0(sp)
    1bfc:	8a4ff0ef          	jal	ca0 <set_leds>
    1c00:	01400513          	li	a0,20
    1c04:	e58fe0ef          	jal	25c <delay>
    1c08:	000027b7          	lui	a5,0x2
    1c0c:	00000993          	li	s3,0
    1c10:	4387aa03          	lw	s4,1080(a5) # 2438 <odd+0x194>
    1c14:	43c7aa83          	lw	s5,1084(a5)
    1c18:	00000913          	li	s2,0
    1c1c:	01400b13          	li	s6,20
    1c20:	00100413          	li	s0,1
    1c24:	01400493          	li	s1,20
    1c28:	3ff00d13          	li	s10,1023
    1c2c:	1ff00c93          	li	s9,511
    1c30:	12c00b93          	li	s7,300
    1c34:	01100c13          	li	s8,17
    1c38:	04099c63          	bnez	s3,1c90 <spinWheel+0xcc>
    1c3c:	00141413          	slli	s0,s0,0x1
    1c40:	008cd663          	bge	s9,s0,1c4c <spinWheel+0x88>
    1c44:	00242993          	slti	s3,s0,2
    1c48:	0019b993          	seqz	s3,s3
    1c4c:	00040513          	mv	a0,s0
    1c50:	850ff0ef          	jal	ca0 <set_leds>
    1c54:	00048513          	mv	a0,s1
    1c58:	00190913          	addi	s2,s2,1
    1c5c:	e00fe0ef          	jal	25c <delay>
    1c60:	076bc263          	blt	s7,s6,1cc4 <spinWheel+0x100>
    1c64:	038967b3          	rem	a5,s2,s8
    1c68:	00048513          	mv	a0,s1
    1c6c:	00079c63          	bnez	a5,1c84 <spinWheel+0xc0>
    1c70:	3b4000ef          	jal	2024 <__floatsidf>
    1c74:	000a0613          	mv	a2,s4
    1c78:	000a8693          	mv	a3,s5
    1c7c:	3e8000ef          	jal	2064 <__muldf3>
    1c80:	34c000ef          	jal	1fcc <__fixdfsi>
    1c84:	00048b13          	mv	s6,s1
    1c88:	00050493          	mv	s1,a0
    1c8c:	fa0988e3          	beqz	s3,1c3c <spinWheel+0x78>
    1c90:	01f45793          	srli	a5,s0,0x1f
    1c94:	008787b3          	add	a5,a5,s0
    1c98:	4017d793          	srai	a5,a5,0x1
    1c9c:	008d4663          	blt	s10,s0,1ca8 <spinWheel+0xe4>
    1ca0:	00078413          	mv	s0,a5
    1ca4:	fa1ff06f          	j	1c44 <spinWheel+0x80>
    1ca8:	00078413          	mv	s0,a5
    1cac:	00040513          	mv	a0,s0
    1cb0:	ff1fe0ef          	jal	ca0 <set_leds>
    1cb4:	00048513          	mv	a0,s1
    1cb8:	00190913          	addi	s2,s2,1
    1cbc:	da0fe0ef          	jal	25c <delay>
    1cc0:	fb6bd2e3          	bge	s7,s6,1c64 <spinWheel+0xa0>
    1cc4:	00100793          	li	a5,1
    1cc8:	00000513          	li	a0,0
    1ccc:	0087d863          	bge	a5,s0,1cdc <spinWheel+0x118>
    1cd0:	40145413          	srai	s0,s0,0x1
    1cd4:	00150513          	addi	a0,a0,1
    1cd8:	fef41ce3          	bne	s0,a5,1cd0 <spinWheel+0x10c>
    1cdc:	02c12083          	lw	ra,44(sp)
    1ce0:	02812403          	lw	s0,40(sp)
    1ce4:	02412483          	lw	s1,36(sp)
    1ce8:	02012903          	lw	s2,32(sp)
    1cec:	01c12983          	lw	s3,28(sp)
    1cf0:	01812a03          	lw	s4,24(sp)
    1cf4:	01412a83          	lw	s5,20(sp)
    1cf8:	01012b03          	lw	s6,16(sp)
    1cfc:	00c12b83          	lw	s7,12(sp)
    1d00:	00812c03          	lw	s8,8(sp)
    1d04:	00412c83          	lw	s9,4(sp)
    1d08:	00012d03          	lw	s10,0(sp)
    1d0c:	03010113          	addi	sp,sp,48
    1d10:	00008067          	ret

00001d14 <showNumber>:
    1d14:	ff010113          	addi	sp,sp,-16
    1d18:	00812423          	sw	s0,8(sp)
    1d1c:	00912223          	sw	s1,4(sp)
    1d20:	00112623          	sw	ra,12(sp)
    1d24:	00050413          	mv	s0,a0
    1d28:	00500493          	li	s1,5
    1d2c:	00040593          	mv	a1,s0
    1d30:	00000513          	li	a0,0
    1d34:	fb1fe0ef          	jal	ce4 <set_displays>
    1d38:	02300593          	li	a1,35
    1d3c:	00100513          	li	a0,1
    1d40:	fa5fe0ef          	jal	ce4 <set_displays>
    1d44:	00040593          	mv	a1,s0
    1d48:	00200513          	li	a0,2
    1d4c:	f99fe0ef          	jal	ce4 <set_displays>
    1d50:	02300593          	li	a1,35
    1d54:	00300513          	li	a0,3
    1d58:	f8dfe0ef          	jal	ce4 <set_displays>
    1d5c:	00040593          	mv	a1,s0
    1d60:	00400513          	li	a0,4
    1d64:	f81fe0ef          	jal	ce4 <set_displays>
    1d68:	02300593          	li	a1,35
    1d6c:	00500513          	li	a0,5
    1d70:	f75fe0ef          	jal	ce4 <set_displays>
    1d74:	0c800513          	li	a0,200
    1d78:	ce4fe0ef          	jal	25c <delay>
    1d7c:	f31fe0ef          	jal	cac <reset_disp>
    1d80:	0c800513          	li	a0,200
    1d84:	fff48493          	addi	s1,s1,-1
    1d88:	cd4fe0ef          	jal	25c <delay>
    1d8c:	fa0490e3          	bnez	s1,1d2c <showNumber+0x18>
    1d90:	00c12083          	lw	ra,12(sp)
    1d94:	00812403          	lw	s0,8(sp)
    1d98:	00412483          	lw	s1,4(sp)
    1d9c:	01010113          	addi	sp,sp,16
    1da0:	00008067          	ret

00001da4 <showStartRound>:
    1da4:	ff010113          	addi	sp,sp,-16
    1da8:	00812423          	sw	s0,8(sp)
    1dac:	00112623          	sw	ra,12(sp)
    1db0:	00300413          	li	s0,3
    1db4:	02400593          	li	a1,36
    1db8:	00500513          	li	a0,5
    1dbc:	f29fe0ef          	jal	ce4 <set_displays>
    1dc0:	02400593          	li	a1,36
    1dc4:	00400513          	li	a0,4
    1dc8:	f1dfe0ef          	jal	ce4 <set_displays>
    1dcc:	02400593          	li	a1,36
    1dd0:	00300513          	li	a0,3
    1dd4:	f11fe0ef          	jal	ce4 <set_displays>
    1dd8:	02400593          	li	a1,36
    1ddc:	00200513          	li	a0,2
    1de0:	f05fe0ef          	jal	ce4 <set_displays>
    1de4:	02400593          	li	a1,36
    1de8:	00100513          	li	a0,1
    1dec:	ef9fe0ef          	jal	ce4 <set_displays>
    1df0:	02400593          	li	a1,36
    1df4:	00000513          	li	a0,0
    1df8:	eedfe0ef          	jal	ce4 <set_displays>
    1dfc:	0c800513          	li	a0,200
    1e00:	c5cfe0ef          	jal	25c <delay>
    1e04:	ea9fe0ef          	jal	cac <reset_disp>
    1e08:	0c800513          	li	a0,200
    1e0c:	fff40413          	addi	s0,s0,-1
    1e10:	c4cfe0ef          	jal	25c <delay>
    1e14:	fa0410e3          	bnez	s0,1db4 <showStartRound+0x10>
    1e18:	00300593          	li	a1,3
    1e1c:	00200513          	li	a0,2
    1e20:	ec5fe0ef          	jal	ce4 <set_displays>
    1e24:	32000513          	li	a0,800
    1e28:	c34fe0ef          	jal	25c <delay>
    1e2c:	e81fe0ef          	jal	cac <reset_disp>
    1e30:	00200593          	li	a1,2
    1e34:	00100513          	li	a0,1
    1e38:	eadfe0ef          	jal	ce4 <set_displays>
    1e3c:	32000513          	li	a0,800
    1e40:	c1cfe0ef          	jal	25c <delay>
    1e44:	e69fe0ef          	jal	cac <reset_disp>
    1e48:	00100593          	li	a1,1
    1e4c:	00000513          	li	a0,0
    1e50:	e95fe0ef          	jal	ce4 <set_displays>
    1e54:	32000513          	li	a0,800
    1e58:	c04fe0ef          	jal	25c <delay>
    1e5c:	00812403          	lw	s0,8(sp)
    1e60:	00c12083          	lw	ra,12(sp)
    1e64:	01010113          	addi	sp,sp,16
    1e68:	e45fe06f          	j	cac <reset_disp>

00001e6c <roulette>:
    1e6c:	fe010113          	addi	sp,sp,-32
    1e70:	00a00793          	li	a5,10
    1e74:	01312623          	sw	s3,12(sp)
    1e78:	01412423          	sw	s4,8(sp)
    1e7c:	01512223          	sw	s5,4(sp)
    1e80:	00002a37          	lui	s4,0x2
    1e84:	000029b7          	lui	s3,0x2
    1e88:	00002ab7          	lui	s5,0x2
    1e8c:	00112e23          	sw	ra,28(sp)
    1e90:	28faaa23          	sw	a5,660(s5) # 2294 <num>
    1e94:	00812c23          	sw	s0,24(sp)
    1e98:	00912a23          	sw	s1,20(sp)
    1e9c:	01212823          	sw	s2,16(sp)
    1ea0:	2a0a2223          	sw	zero,676(s4) # 22a4 <odd>
    1ea4:	00050913          	mv	s2,a0
    1ea8:	2a09a023          	sw	zero,672(s3) # 22a0 <even>
    1eac:	b69ff0ef          	jal	1a14 <pickBets>
    1eb0:	00002537          	lui	a0,0x2
    1eb4:	41850513          	addi	a0,a0,1048 # 2418 <odd+0x174>
    1eb8:	c70fe0ef          	jal	328 <print>
    1ebc:	1f400513          	li	a0,500
    1ec0:	b9cfe0ef          	jal	25c <delay>
    1ec4:	ee1ff0ef          	jal	1da4 <showStartRound>
    1ec8:	cfdff0ef          	jal	1bc4 <spinWheel>
    1ecc:	00050413          	mv	s0,a0
    1ed0:	00500493          	li	s1,5
    1ed4:	00040593          	mv	a1,s0
    1ed8:	00000513          	li	a0,0
    1edc:	e09fe0ef          	jal	ce4 <set_displays>
    1ee0:	02300593          	li	a1,35
    1ee4:	00100513          	li	a0,1
    1ee8:	dfdfe0ef          	jal	ce4 <set_displays>
    1eec:	00040593          	mv	a1,s0
    1ef0:	00200513          	li	a0,2
    1ef4:	df1fe0ef          	jal	ce4 <set_displays>
    1ef8:	02300593          	li	a1,35
    1efc:	00300513          	li	a0,3
    1f00:	de5fe0ef          	jal	ce4 <set_displays>
    1f04:	00040593          	mv	a1,s0
    1f08:	00400513          	li	a0,4
    1f0c:	dd9fe0ef          	jal	ce4 <set_displays>
    1f10:	02300593          	li	a1,35
    1f14:	00500513          	li	a0,5
    1f18:	dcdfe0ef          	jal	ce4 <set_displays>
    1f1c:	0c800513          	li	a0,200
    1f20:	b3cfe0ef          	jal	25c <delay>
    1f24:	d89fe0ef          	jal	cac <reset_disp>
    1f28:	0c800513          	li	a0,200
    1f2c:	fff48493          	addi	s1,s1,-1
    1f30:	b2cfe0ef          	jal	25c <delay>
    1f34:	fa0490e3          	bnez	s1,1ed4 <roulette+0x68>
    1f38:	00002537          	lui	a0,0x2
    1f3c:	42850513          	addi	a0,a0,1064 # 2428 <odd+0x184>
    1f40:	be8fe0ef          	jal	328 <print>
    1f44:	00040513          	mv	a0,s0
    1f48:	c18fe0ef          	jal	360 <print_dec>
    1f4c:	00002537          	lui	a0,0x2
    1f50:	34850513          	addi	a0,a0,840 # 2348 <odd+0xa4>
    1f54:	bd4fe0ef          	jal	328 <print>
    1f58:	06040063          	beqz	s0,1fb8 <roulette+0x14c>
    1f5c:	00147793          	andi	a5,s0,1
    1f60:	0017b693          	seqz	a3,a5
    1f64:	294aa703          	lw	a4,660(s5)
    1f68:	00000513          	li	a0,0
    1f6c:	00871663          	bne	a4,s0,1f78 <roulette+0x10c>
    1f70:	00391513          	slli	a0,s2,0x3
    1f74:	01250533          	add	a0,a0,s2
    1f78:	2a4a2703          	lw	a4,676(s4)
    1f7c:	00070463          	beqz	a4,1f84 <roulette+0x118>
    1f80:	04079263          	bnez	a5,1fc4 <roulette+0x158>
    1f84:	2a09a783          	lw	a5,672(s3)
    1f88:	00078663          	beqz	a5,1f94 <roulette+0x128>
    1f8c:	00068463          	beqz	a3,1f94 <roulette+0x128>
    1f90:	00191513          	slli	a0,s2,0x1
    1f94:	01c12083          	lw	ra,28(sp)
    1f98:	01812403          	lw	s0,24(sp)
    1f9c:	01412483          	lw	s1,20(sp)
    1fa0:	01012903          	lw	s2,16(sp)
    1fa4:	00c12983          	lw	s3,12(sp)
    1fa8:	00812a03          	lw	s4,8(sp)
    1fac:	00412a83          	lw	s5,4(sp)
    1fb0:	02010113          	addi	sp,sp,32
    1fb4:	00008067          	ret
    1fb8:	00000693          	li	a3,0
    1fbc:	00000793          	li	a5,0
    1fc0:	fa5ff06f          	j	1f64 <roulette+0xf8>
    1fc4:	00191513          	slli	a0,s2,0x1
    1fc8:	fbdff06f          	j	1f84 <roulette+0x118>

00001fcc <__fixdfsi>:
    1fcc:	80000737          	lui	a4,0x80000
    1fd0:	41f5d793          	srai	a5,a1,0x1f
    1fd4:	00159593          	slli	a1,a1,0x1
    1fd8:	0155d613          	srli	a2,a1,0x15
    1fdc:	c0160613          	addi	a2,a2,-1023
    1fe0:	02064e63          	bltz	a2,201c <undflow>
    1fe4:	40c00633          	neg	a2,a2
    1fe8:	01f60613          	addi	a2,a2,31
    1fec:	02c05263          	blez	a2,2010 <ovflow>
    1ff0:	00a59593          	slli	a1,a1,0xa
    1ff4:	01555513          	srli	a0,a0,0x15
    1ff8:	00a5e5b3          	or	a1,a1,a0
    1ffc:	00e5e5b3          	or	a1,a1,a4
    2000:	00c5d533          	srl	a0,a1,a2
    2004:	00f54533          	xor	a0,a0,a5
    2008:	40f50533          	sub	a0,a0,a5
    200c:	00008067          	ret

00002010 <ovflow>:
    2010:	fff70513          	addi	a0,a4,-1 # 7fffffff <_stack_end+0x7fefdbbf>
    2014:	00f54533          	xor	a0,a0,a5
    2018:	00008067          	ret

0000201c <undflow>:
    201c:	00000513          	li	a0,0
    2020:	00008067          	ret

00002024 <__floatsidf>:
    2024:	41f55793          	srai	a5,a0,0x1f
    2028:	00f545b3          	xor	a1,a0,a5
    202c:	40f585b3          	sub	a1,a1,a5
    2030:	02050863          	beqz	a0,2060 <exit>
    2034:	01f79793          	slli	a5,a5,0x1f
    2038:	41d00613          	li	a2,1053
    203c:	0005c863          	bltz	a1,204c <__floatsidf+0x28>
    2040:	fff60613          	addi	a2,a2,-1
    2044:	00159593          	slli	a1,a1,0x1
    2048:	feb04ce3          	bgtz	a1,2040 <__floatsidf+0x1c>
    204c:	01559513          	slli	a0,a1,0x15
    2050:	00b5d593          	srli	a1,a1,0xb
    2054:	01461613          	slli	a2,a2,0x14
    2058:	00c585b3          	add	a1,a1,a2
    205c:	00f5e5b3          	or	a1,a1,a5

00002060 <exit>:
    2060:	00008067          	ret

00002064 <__muldf3>:
    2064:	00d5c733          	xor	a4,a1,a3
    2068:	800007b7          	lui	a5,0x80000
    206c:	00f772b3          	and	t0,a4,a5
    2070:	7ff00793          	li	a5,2047
    2074:	0145d713          	srli	a4,a1,0x14
    2078:	00f77733          	and	a4,a4,a5
    207c:	0146d313          	srli	t1,a3,0x14
    2080:	00f37333          	and	t1,t1,a5
    2084:	10f70863          	beq	a4,a5,2194 <inf_nan>
    2088:	10f30663          	beq	t1,a5,2194 <inf_nan>
    208c:	0e070e63          	beqz	a4,2188 <signed_zero>
    2090:	0e030c63          	beqz	t1,2188 <signed_zero>

00002094 <normal_case>:
    2094:	00670733          	add	a4,a4,t1
    2098:	fff007b7          	lui	a5,0xfff00
    209c:	fff7c793          	not	a5,a5
    20a0:	00f5f5b3          	and	a1,a1,a5
    20a4:	00f6f6b3          	and	a3,a3,a5
    20a8:	001007b7          	lui	a5,0x100
    20ac:	00f5e5b3          	or	a1,a1,a5
    20b0:	00f6e6b3          	or	a3,a3,a5
    20b4:	02c58333          	mul	t1,a1,a2
    20b8:	02d507b3          	mul	a5,a0,a3
    20bc:	00f30333          	add	t1,t1,a5
    20c0:	00f337b3          	sltu	a5,t1,a5
    20c4:	02c5b3b3          	mulhu	t2,a1,a2
    20c8:	00f383b3          	add	t2,t2,a5
    20cc:	02d537b3          	mulhu	a5,a0,a3
    20d0:	00f383b3          	add	t2,t2,a5
    20d4:	02c507b3          	mul	a5,a0,a2
    20d8:	02c53633          	mulhu	a2,a0,a2
    20dc:	02d58533          	mul	a0,a1,a3
    20e0:	02d5b5b3          	mulhu	a1,a1,a3
    20e4:	00660633          	add	a2,a2,t1
    20e8:	00663333          	sltu	t1,a2,t1
    20ec:	006383b3          	add	t2,t2,t1
    20f0:	00750533          	add	a0,a0,t2
    20f4:	007533b3          	sltu	t2,a0,t2
    20f8:	007585b3          	add	a1,a1,t2
    20fc:	00f037b3          	snez	a5,a5
    2100:	00f66633          	or	a2,a2,a5
    2104:	20000393          	li	t2,512
    2108:	0275f263          	bgeu	a1,t2,212c <normal_case+0x98>
    210c:	00159593          	slli	a1,a1,0x1
    2110:	01f55793          	srli	a5,a0,0x1f
    2114:	00f5e5b3          	or	a1,a1,a5
    2118:	00151513          	slli	a0,a0,0x1
    211c:	01f65793          	srli	a5,a2,0x1f
    2120:	00f56533          	or	a0,a0,a5
    2124:	00161613          	slli	a2,a2,0x1
    2128:	fff70713          	addi	a4,a4,-1
    212c:	00b59593          	slli	a1,a1,0xb
    2130:	01555793          	srli	a5,a0,0x15
    2134:	00f5e5b3          	or	a1,a1,a5
    2138:	00b51513          	slli	a0,a0,0xb
    213c:	01565793          	srli	a5,a2,0x15
    2140:	00f56533          	or	a0,a0,a5
    2144:	00b61613          	slli	a2,a2,0xb
    2148:	c0170713          	addi	a4,a4,-1023
    214c:	7fe00313          	li	t1,2046
    2150:	02677863          	bgeu	a4,t1,2180 <und_ov_flow>
    2154:	01471713          	slli	a4,a4,0x14
    2158:	00e585b3          	add	a1,a1,a4

0000215c <rounding>:
    215c:	800007b7          	lui	a5,0x80000
    2160:	00f66c63          	bltu	a2,a5,2178 <exit>
    2164:	00150513          	addi	a0,a0,1
    2168:	00153313          	seqz	t1,a0
    216c:	006585b3          	add	a1,a1,t1
    2170:	00f61463          	bne	a2,a5,2178 <exit>
    2174:	ffe57513          	andi	a0,a0,-2

00002178 <exit>:
    2178:	0055e5b3          	or	a1,a1,t0
    217c:	00008067          	ret

00002180 <und_ov_flow>:
    2180:	04e04463          	bgtz	a4,21c8 <inf>
    2184:	0040006f          	j	2188 <signed_zero>

00002188 <signed_zero>:
    2188:	00028593          	mv	a1,t0

0000218c <zero_xl>:
    218c:	00000513          	li	a0,0
    2190:	00008067          	ret

00002194 <inf_nan>:
    2194:	7ff00393          	li	t2,2047
    2198:	01571793          	slli	a5,a4,0x15
    219c:	02078c63          	beqz	a5,21d4 <nan>
    21a0:	01531793          	slli	a5,t1,0x15
    21a4:	02078863          	beqz	a5,21d4 <nan>
    21a8:	00771863          	bne	a4,t2,21b8 <inf_nan+0x24>
    21ac:	00c59793          	slli	a5,a1,0xc
    21b0:	00a7e7b3          	or	a5,a5,a0
    21b4:	02079063          	bnez	a5,21d4 <nan>
    21b8:	00731863          	bne	t1,t2,21c8 <inf>
    21bc:	00c69713          	slli	a4,a3,0xc
    21c0:	00c76733          	or	a4,a4,a2
    21c4:	00071863          	bnez	a4,21d4 <nan>

000021c8 <inf>:
    21c8:	7ff005b7          	lui	a1,0x7ff00
    21cc:	0055e5b3          	or	a1,a1,t0
    21d0:	fbdff06f          	j	218c <zero_xl>

000021d4 <nan>:
    21d4:	7ff805b7          	lui	a1,0x7ff80
    21d8:	fb5ff06f          	j	218c <zero_xl>

Disassembly of section .data:

000021dc <welcome_msg>:
    21dc:	3d3d                	.insn	2, 0x3d3d
    21de:	3d3d                	.insn	2, 0x3d3d
    21e0:	3d3d                	.insn	2, 0x3d3d
    21e2:	3d3d                	.insn	2, 0x3d3d
    21e4:	3d3d                	.insn	2, 0x3d3d
    21e6:	3d3d                	.insn	2, 0x3d3d
    21e8:	3d3d                	.insn	2, 0x3d3d
    21ea:	3d3d                	.insn	2, 0x3d3d
    21ec:	3d3d                	.insn	2, 0x3d3d
    21ee:	3d3d                	.insn	2, 0x3d3d
    21f0:	3d3d                	.insn	2, 0x3d3d
    21f2:	3d3d                	.insn	2, 0x3d3d
    21f4:	3d3d                	.insn	2, 0x3d3d
    21f6:	3d3d                	.insn	2, 0x3d3d
    21f8:	3d3d                	.insn	2, 0x3d3d
    21fa:	3d3d                	.insn	2, 0x3d3d
    21fc:	3d3d                	.insn	2, 0x3d3d
    21fe:	3d3d                	.insn	2, 0x3d3d
    2200:	3d3d                	.insn	2, 0x3d3d
    2202:	3d3d                	.insn	2, 0x3d3d
    2204:	3d3d                	.insn	2, 0x3d3d
    2206:	3d3d                	.insn	2, 0x3d3d
    2208:	3d3d                	.insn	2, 0x3d3d
    220a:	3d3d                	.insn	2, 0x3d3d
    220c:	3d0a                	.insn	2, 0x3d0a
    220e:	3d3d                	.insn	2, 0x3d3d
    2210:	3d3d                	.insn	2, 0x3d3d
    2212:	5220                	.insn	2, 0x5220
    2214:	5349                	.insn	2, 0x5349
    2216:	20562d43          	.insn	4, 0x20562d43
    221a:	6f42                	.insn	2, 0x6f42
    221c:	552d746f          	jal	s0,d976e <__global_pointer+0xd6cdd>
    2220:	2070                	.insn	2, 0x2070
    2222:	7250                	.insn	2, 0x7250
    2224:	7365636f          	jal	t1,5895a <__global_pointer+0x55ec9>
    2228:	6f4e2073          	csrs	0x6f4,t3
    222c:	6f432077          	.insn	4, 0x6f432077
    2230:	706d                	.insn	2, 0x706d
    2232:	656c                	.insn	2, 0x656c
    2234:	6574                	.insn	2, 0x6574
    2236:	3d20                	.insn	2, 0x3d20
    2238:	3d3d                	.insn	2, 0x3d3d
    223a:	3d3d                	.insn	2, 0x3d3d
    223c:	0a3d                	.insn	2, 0x0a3d
    223e:	3d3d                	.insn	2, 0x3d3d
    2240:	3d3d                	.insn	2, 0x3d3d
    2242:	3d3d                	.insn	2, 0x3d3d
    2244:	3d3d                	.insn	2, 0x3d3d
    2246:	3d3d                	.insn	2, 0x3d3d
    2248:	3d3d                	.insn	2, 0x3d3d
    224a:	3d3d                	.insn	2, 0x3d3d
    224c:	3d3d                	.insn	2, 0x3d3d
    224e:	3d3d                	.insn	2, 0x3d3d
    2250:	3d3d                	.insn	2, 0x3d3d
    2252:	3d3d                	.insn	2, 0x3d3d
    2254:	3d3d                	.insn	2, 0x3d3d
    2256:	3d3d                	.insn	2, 0x3d3d
    2258:	3d3d                	.insn	2, 0x3d3d
    225a:	3d3d                	.insn	2, 0x3d3d
    225c:	3d3d                	.insn	2, 0x3d3d
    225e:	3d3d                	.insn	2, 0x3d3d
    2260:	3d3d                	.insn	2, 0x3d3d
    2262:	3d3d                	.insn	2, 0x3d3d
    2264:	3d3d                	.insn	2, 0x3d3d
    2266:	3d3d                	.insn	2, 0x3d3d
    2268:	3d3d                	.insn	2, 0x3d3d
    226a:	3d3d                	.insn	2, 0x3d3d
    226c:	3d3d                	.insn	2, 0x3d3d
    226e:	000a                	.insn	2, 0x000a

00002270 <mytime>:
    2270:	00005957          	.insn	4, 0x5957

00002274 <timstr>:
    2274:	6574                	.insn	2, 0x6574
    2276:	7478                	.insn	2, 0x7478
    2278:	6d20                	.insn	2, 0x6d20
    227a:	2065726f          	jal	tp,59480 <__global_pointer+0x569ef>
    227e:	6574                	.insn	2, 0x6574
    2280:	7478                	.insn	2, 0x7478
    2282:	6c20                	.insn	2, 0x6c20
    2284:	2073746f          	jal	s0,39c8a <__global_pointer+0x371f9>
    2288:	7420666f          	jal	a2,89ca <__global_pointer+0x5f39>
    228c:	7865                	.insn	2, 0x7865
    228e:	0074                	.insn	2, 0x0074
    2290:	0000                	.insn	2, 0x
	...

00002294 <num>:
    2294:	000a                	.insn	2, 0x000a
	...

Disassembly of section .rodata.str1.4:

000022a8 <.rodata.str1.4>:
    22a8:	5b0a                	.insn	2, 0x5b0a
    22aa:	5845                	.insn	2, 0x5845
    22ac:	54504543          	.insn	4, 0x54504543
    22b0:	4f49                	.insn	2, 0x4f49
    22b2:	5d4e                	.insn	2, 0x5d4e
    22b4:	4920                	.insn	2, 0x4920
    22b6:	736e                	.insn	2, 0x736e
    22b8:	7274                	.insn	2, 0x7274
    22ba:	6375                	.insn	2, 0x6375
    22bc:	6974                	.insn	2, 0x6974
    22be:	61206e6f          	jal	t3,88d0 <__global_pointer+0x5e3f>
    22c2:	6464                	.insn	2, 0x6464
    22c4:	6572                	.insn	2, 0x6572
    22c6:	6d207373          	csrrci	t1,0x6d2,0
    22ca:	7369                	.insn	2, 0x7369
    22cc:	6c61                	.insn	2, 0x6c61
    22ce:	6769                	.insn	2, 0x6769
    22d0:	6d6e                	.insn	2, 0x6d6e
    22d2:	6e65                	.insn	2, 0x6e65
    22d4:	2e74                	.insn	2, 0x2e74
    22d6:	0020                	.insn	2, 0x0020
    22d8:	5b0a                	.insn	2, 0x5b0a
    22da:	5845                	.insn	2, 0x5845
    22dc:	54504543          	.insn	4, 0x54504543
    22e0:	4f49                	.insn	2, 0x4f49
    22e2:	5d4e                	.insn	2, 0x5d4e
    22e4:	4920                	.insn	2, 0x4920
    22e6:	6c6c                	.insn	2, 0x6c6c
    22e8:	6765                	.insn	2, 0x6765
    22ea:	6c61                	.insn	2, 0x6c61
    22ec:	6920                	.insn	2, 0x6920
    22ee:	736e                	.insn	2, 0x736e
    22f0:	7274                	.insn	2, 0x7274
    22f2:	6375                	.insn	2, 0x6375
    22f4:	6974                	.insn	2, 0x6974
    22f6:	202e6e6f          	jal	t3,e84f8 <__global_pointer+0xe5a67>
    22fa:	0000                	.insn	2, 0x
    22fc:	0000                	.insn	2, 0x
    22fe:	0000                	.insn	2, 0x
    2300:	5b0a                	.insn	2, 0x5b0a
    2302:	5845                	.insn	2, 0x5845
    2304:	54504543          	.insn	4, 0x54504543
    2308:	4f49                	.insn	2, 0x4f49
    230a:	5d4e                	.insn	2, 0x5d4e
    230c:	5520                	.insn	2, 0x5520
    230e:	6b6e                	.insn	2, 0x6b6e
    2310:	6f6e                	.insn	2, 0x6f6e
    2312:	65206e77          	.insn	4, 0x65206e77
    2316:	7272                	.insn	2, 0x7272
    2318:	202e726f          	jal	tp,e951a <__global_pointer+0xe6a89>
    231c:	0000                	.insn	2, 0x
    231e:	0000                	.insn	2, 0x
    2320:	7845                	.insn	2, 0x7845
    2322:	74706563          	bltu	zero,t2,2a6c <odd+0x7c8>
    2326:	6f69                	.insn	2, 0x6f69
    2328:	206e                	.insn	2, 0x206e
    232a:	6441                	.insn	2, 0x6441
    232c:	7264                	.insn	2, 0x7264
    232e:	7365                	.insn	2, 0x7365
    2330:	00203a73          	csrrc	s4,frm,zero
    2334:	6150                	.insn	2, 0x6150
    2336:	6d79                	.insn	2, 0x6d79
    2338:	6e65                	.insn	2, 0x6e65
    233a:	2074                	.insn	2, 0x2074
    233c:	6572                	.insn	2, 0x6572
    233e:	76696563          	bltu	s2,t1,2aa8 <__global_pointer+0x17>
    2342:	6465                	.insn	2, 0x6465
    2344:	203a                	.insn	2, 0x203a
    2346:	0000                	.insn	2, 0x
    2348:	000a                	.insn	2, 0x000a
    234a:	0000                	.insn	2, 0x
    234c:	6f59                	.insn	2, 0x6f59
    234e:	7275                	.insn	2, 0x7275
    2350:	6220                	.insn	2, 0x6220
    2352:	7465                	.insn	2, 0x7465
    2354:	203a                	.insn	2, 0x203a
    2356:	0000                	.insn	2, 0x
    2358:	6f4e                	.insn	2, 0x6f4e
    235a:	2074                	.insn	2, 0x2074
    235c:	6e65                	.insn	2, 0x6e65
    235e:	6867756f          	jal	a0,799e4 <__global_pointer+0x76f53>
    2362:	6d20                	.insn	2, 0x6d20
    2364:	79656e6f          	jal	t3,58afa <__global_pointer+0x56069>
    2368:	0000                	.insn	2, 0x
    236a:	0000                	.insn	2, 0x
    236c:	6954                	.insn	2, 0x6954
    236e:	656d                	.insn	2, 0x656d
    2370:	6620                	.insn	2, 0x6620
    2372:	7220726f          	jal	tp,9a94 <__global_pointer+0x7003>
    2376:	656c756f          	jal	a0,c99cc <__global_pointer+0xc6f3b>
    237a:	7474                	.insn	2, 0x7474
    237c:	2165                	.insn	2, 0x2165
    237e:	000a                	.insn	2, 0x000a
    2380:	654e                	.insn	2, 0x654e
    2382:	6f722077          	.insn	4, 0x6f722077
    2386:	6e75                	.insn	2, 0x6e75
    2388:	2164                	.insn	2, 0x2164
    238a:	000a                	.insn	2, 0x000a
    238c:	614d                	.insn	2, 0x614d
    238e:	6220656b          	.insn	4, 0x6220656b
    2392:	7465                	.insn	2, 0x7465
    2394:	0000                	.insn	2, 0x
    2396:	0000                	.insn	2, 0x
    2398:	6f59                	.insn	2, 0x6f59
    239a:	2075                	.insn	2, 0x2075
    239c:	3a6e6977          	.insn	4, 0x3a6e6977
    23a0:	0020                	.insn	2, 0x0020
    23a2:	0000                	.insn	2, 0x
    23a4:	6f4e                	.insn	2, 0x6f4e
    23a6:	7720                	.insn	2, 0x7720
    23a8:	6e69                	.insn	2, 0x6e69
    23aa:	0a2e2e73          	csrrs	t3,0xa2,t3
    23ae:	0000                	.insn	2, 0x
    23b0:	6f52                	.insn	2, 0x6f52
    23b2:	646e                	.insn	2, 0x646e
    23b4:	6620                	.insn	2, 0x6620
    23b6:	6e69                	.insn	2, 0x6e69
    23b8:	7369                	.insn	2, 0x7369
    23ba:	6568                	.insn	2, 0x6568
    23bc:	0a64                	.insn	2, 0x0a64
    23be:	0000                	.insn	2, 0x
    23c0:	6c50                	.insn	2, 0x6c50
    23c2:	7961                	.insn	2, 0x7961
    23c4:	6120                	.insn	2, 0x6120
    23c6:	6e696167          	.insn	4, 0x6e696167
    23ca:	000a                	.insn	2, 0x000a
    23cc:	6552                	.insn	2, 0x6552
    23ce:	20746573          	csrrsi	a0,0x207,8
    23d2:	656d6167          	.insn	4, 0x656d6167
    23d6:	0000                	.insn	2, 0x
    23d8:	6f59                	.insn	2, 0x6f59
    23da:	2075                	.insn	2, 0x2075
    23dc:	6970                	.insn	2, 0x6970
    23de:	64656b63          	bltu	a0,t1,2a34 <odd+0x790>
    23e2:	203a                	.insn	2, 0x203a
    23e4:	0000                	.insn	2, 0x
    23e6:	0000                	.insn	2, 0x
    23e8:	0a64646f          	jal	s0,4848e <__global_pointer+0x459fd>
    23ec:	0000                	.insn	2, 0x
    23ee:	0000                	.insn	2, 0x
    23f0:	7665                	.insn	2, 0x7665
    23f2:	6e65                	.insn	2, 0x6e65
    23f4:	000a                	.insn	2, 0x000a
    23f6:	0000                	.insn	2, 0x
    23f8:	6f6e                	.insn	2, 0x6f6e
    23fa:	656e                	.insn	2, 0x656e
    23fc:	000a                	.insn	2, 0x000a
    23fe:	0000                	.insn	2, 0x
    2400:	6f59                	.insn	2, 0x6f59
    2402:	2075                	.insn	2, 0x2075
    2404:	6970                	.insn	2, 0x6970
    2406:	64656b63          	bltu	a0,t1,2a5c <odd+0x7b8>
    240a:	6e20                	.insn	2, 0x6e20
    240c:	756e206f          	j	e4b62 <__global_pointer+0xe20d1>
    2410:	626d                	.insn	2, 0x626d
    2412:	7265                	.insn	2, 0x7265
    2414:	000a                	.insn	2, 0x000a
    2416:	0000                	.insn	2, 0x
    2418:	654c                	.insn	2, 0x654c
    241a:	2774                	.insn	2, 0x2774
    241c:	6c702073          	csrr	zero,0x6c7
    2420:	7961                	.insn	2, 0x7961
    2422:	0a21                	.insn	2, 0x0a21
    2424:	0000                	.insn	2, 0x
    2426:	0000                	.insn	2, 0x
    2428:	614c                	.insn	2, 0x614c
    242a:	646e                	.insn	2, 0x646e
    242c:	6465                	.insn	2, 0x6465
    242e:	6f20                	.insn	2, 0x6f20
    2430:	3a6e                	.insn	2, 0x3a6e
    2432:	0020                	.insn	2, 0x0020

Disassembly of section .srodata.cst8:

00002438 <.srodata.cst8>:
    2438:	cccd                	.insn	2, 0xcccd
    243a:	cccc                	.insn	2, 0xcccc
    243c:	cccc                	.insn	2, 0xcccc
    243e:	3ffc                	.insn	2, 0x3ffc

Disassembly of section .comment:

00000000 <.comment>:
   0:	3a434347          	.insn	4, 0x3a434347
   4:	2820                	.insn	2, 0x2820
   6:	2029                	.insn	2, 0x2029
   8:	3331                	.insn	2, 0x3331
   a:	322e                	.insn	2, 0x322e
   c:	302e                	.insn	2, 0x302e
	...

Disassembly of section .riscv.attributes:

00000000 <.riscv.attributes>:
   0:	3641                	.insn	2, 0x3641
   2:	0000                	.insn	2, 0x
   4:	7200                	.insn	2, 0x7200
   6:	7369                	.insn	2, 0x7369
   8:	01007663          	bgeu	zero,a6,14 <_isr_routine+0xc>
   c:	002c                	.insn	2, 0x002c
   e:	0000                	.insn	2, 0x
  10:	1004                	.insn	2, 0x1004
  12:	7205                	.insn	2, 0x7205
  14:	3376                	.insn	2, 0x3376
  16:	6932                	.insn	2, 0x6932
  18:	7032                	.insn	2, 0x7032
  1a:	5f31                	.insn	2, 0x5f31
  1c:	326d                	.insn	2, 0x326d
  1e:	3070                	.insn	2, 0x3070
  20:	7a5f 6369 7273      	.insn	6, 0x727363697a5f
  26:	7032                	.insn	2, 0x7032
  28:	5f30                	.insn	2, 0x5f30
  2a:	6d7a                	.insn	2, 0x6d7a
  2c:	756d                	.insn	2, 0x756d
  2e:	316c                	.insn	2, 0x316c
  30:	3070                	.insn	2, 0x3070
  32:	0800                	.insn	2, 0x0800
  34:	0a01                	.insn	2, 0x0a01
  36:	Address 0x36 is out of bounds.

