
main.elf:     file format elf32-littleriscv


Disassembly of section .text:

00000000 <_isr_handler>:
       0:	0080006f          	j	8 <_isr_routine>
       4:	1440006f          	j	148 <_start>

00000008 <_isr_routine>:
       8:	f8010113          	addi	sp,sp,-128
       c:	00112023          	sw	ra,0(sp)
      10:	00312423          	sw	gp,8(sp)
      14:	00412623          	sw	tp,12(sp)
      18:	00512823          	sw	t0,16(sp)
      1c:	00612a23          	sw	t1,20(sp)
      20:	00712c23          	sw	t2,24(sp)
      24:	00812e23          	sw	s0,28(sp)
      28:	02912023          	sw	s1,32(sp)
      2c:	02a12223          	sw	a0,36(sp)
      30:	02b12423          	sw	a1,40(sp)
      34:	02c12623          	sw	a2,44(sp)
      38:	02d12823          	sw	a3,48(sp)
      3c:	02e12a23          	sw	a4,52(sp)
      40:	02f12c23          	sw	a5,56(sp)
      44:	03012e23          	sw	a6,60(sp)
      48:	05112023          	sw	a7,64(sp)
      4c:	05212223          	sw	s2,68(sp)
      50:	05312423          	sw	s3,72(sp)
      54:	05412623          	sw	s4,76(sp)
      58:	05512823          	sw	s5,80(sp)
      5c:	05612a23          	sw	s6,84(sp)
      60:	05712c23          	sw	s7,88(sp)
      64:	05812e23          	sw	s8,92(sp)
      68:	07912023          	sw	s9,96(sp)
      6c:	07a12223          	sw	s10,100(sp)
      70:	07b12423          	sw	s11,104(sp)
      74:	07c12623          	sw	t3,108(sp)
      78:	07d12823          	sw	t4,112(sp)
      7c:	07e12a23          	sw	t5,116(sp)
      80:	07f12c23          	sw	t6,120(sp)
      84:	342022f3          	csrr	t0,mcause
      88:	80000337          	lui	t1,0x80000
      8c:	02536463          	bltu	t1,t0,b4 <external_irq>
      90:	00028833          	add	a6,t0,zero
      94:	00b00313          	li	t1,11
      98:	00628463          	beq	t0,t1,a0 <skip_init_args>
      9c:	34102573          	csrr	a0,mepc

000000a0 <skip_init_args>:
      a0:	3bc000ef          	jal	45c <handle_exception>
      a4:	341022f3          	csrr	t0,mepc
      a8:	00428293          	addi	t0,t0,4
      ac:	34129073          	csrw	mepc,t0
      b0:	0180006f          	j	c8 <restore>

000000b4 <external_irq>:
      b4:	800002b7          	lui	t0,0x80000
      b8:	fff28293          	addi	t0,t0,-1 # 7fffffff <_stack_end+0x7fefec43>
      bc:	34202373          	csrr	t1,mcause
      c0:	0062f533          	and	a0,t0,t1
      c4:	739000ef          	jal	ffc <handle_interrupt>

000000c8 <restore>:
      c8:	00012083          	lw	ra,0(sp)
      cc:	00812183          	lw	gp,8(sp)
      d0:	00c12203          	lw	tp,12(sp)
      d4:	01012283          	lw	t0,16(sp)
      d8:	01412303          	lw	t1,20(sp)
      dc:	01812383          	lw	t2,24(sp)
      e0:	01c12403          	lw	s0,28(sp)
      e4:	02012483          	lw	s1,32(sp)
      e8:	02412503          	lw	a0,36(sp)
      ec:	02812583          	lw	a1,40(sp)
      f0:	02c12603          	lw	a2,44(sp)
      f4:	03012683          	lw	a3,48(sp)
      f8:	03412703          	lw	a4,52(sp)
      fc:	03812783          	lw	a5,56(sp)
     100:	03c12803          	lw	a6,60(sp)
     104:	04012883          	lw	a7,64(sp)
     108:	04412903          	lw	s2,68(sp)
     10c:	04812983          	lw	s3,72(sp)
     110:	04c12a03          	lw	s4,76(sp)
     114:	05012a83          	lw	s5,80(sp)
     118:	05412b03          	lw	s6,84(sp)
     11c:	05812b83          	lw	s7,88(sp)
     120:	05c12c03          	lw	s8,92(sp)
     124:	06012c83          	lw	s9,96(sp)
     128:	06412d03          	lw	s10,100(sp)
     12c:	06812d83          	lw	s11,104(sp)
     130:	06c12e03          	lw	t3,108(sp)
     134:	07012e83          	lw	t4,112(sp)
     138:	07412f03          	lw	t5,116(sp)
     13c:	07812f83          	lw	t6,120(sp)
     140:	08010113          	addi	sp,sp,128
     144:	30200073          	mret

00000148 <_start>:
     148:	30401073          	csrw	mie,zero
     14c:	00101117          	auipc	sp,0x101
     150:	27010113          	addi	sp,sp,624 # 1013bc <_stack_end>
     154:	00002197          	auipc	gp,0x2
     158:	9b918193          	addi	gp,gp,-1607 # 1b0d <__global_pointer>
     15c:	00001517          	auipc	a0,0x1
     160:	0d450513          	addi	a0,a0,212 # 1230 <welcome_msg>
     164:	00400893          	li	a7,4
     168:	00000073          	ecall
     16c:	6cd000ef          	jal	1038 <main>

00000170 <loop>:
     170:	0000006f          	j	170 <loop>

00000174 <display_string>:
     174:	00400893          	li	a7,4
     178:	00000073          	ecall
     17c:	00a00513          	li	a0,10
     180:	00b00893          	li	a7,11
     184:	00000073          	ecall
     188:	00008067          	ret

0000018c <timetemplate>:
     18c:	00001517          	auipc	a0,0x1
     190:	13c50513          	addi	a0,a0,316 # 12c8 <timstr>
     194:	fe1ff0ef          	jal	174 <display_string>
     198:	3e800513          	li	a0,1000
     19c:	0ac000ef          	jal	248 <delay>
     1a0:	00001517          	auipc	a0,0x1
     1a4:	12450513          	addi	a0,a0,292 # 12c4 <mytime>
     1a8:	020000ef          	jal	1c8 <tick>
     1ac:	00001517          	auipc	a0,0x1
     1b0:	11c50513          	addi	a0,a0,284 # 12c8 <timstr>
     1b4:	00001297          	auipc	t0,0x1
     1b8:	11028293          	addi	t0,t0,272 # 12c4 <mytime>
     1bc:	0002a583          	lw	a1,0(t0)
     1c0:	0c0000ef          	jal	280 <time2string>
     1c4:	fc9ff06f          	j	18c <timetemplate>

000001c8 <tick>:
     1c8:	00052283          	lw	t0,0(a0)
     1cc:	00128293          	addi	t0,t0,1
     1d0:	00f2f313          	andi	t1,t0,15
     1d4:	00a33393          	sltiu	t2,t1,10
     1d8:	06039063          	bnez	t2,238 <tiend>
     1dc:	00628293          	addi	t0,t0,6
     1e0:	0f02f313          	andi	t1,t0,240
     1e4:	06033393          	sltiu	t2,t1,96
     1e8:	04039863          	bnez	t2,238 <tiend>
     1ec:	0a028293          	addi	t0,t0,160
     1f0:	00f00e13          	li	t3,15
     1f4:	008e1e13          	slli	t3,t3,0x8
     1f8:	01c2f333          	and	t1,t0,t3
     1fc:	00a00e13          	li	t3,10
     200:	008e1e13          	slli	t3,t3,0x8
     204:	01c323b3          	slt	t2,t1,t3
     208:	02039863          	bnez	t2,238 <tiend>
     20c:	60028293          	addi	t0,t0,1536
     210:	00f00e13          	li	t3,15
     214:	00ce1e13          	slli	t3,t3,0xc
     218:	01c2f333          	and	t1,t0,t3
     21c:	00600e13          	li	t3,6
     220:	00ce1e13          	slli	t3,t3,0xc
     224:	01c323b3          	slt	t2,t1,t3
     228:	00039863          	bnez	t2,238 <tiend>
     22c:	00a00e13          	li	t3,10
     230:	00ce1e13          	slli	t3,t3,0xc
     234:	01c282b3          	add	t0,t0,t3

00000238 <tiend>:
     238:	00552023          	sw	t0,0(a0)
     23c:	00008067          	ret

00000240 <hex2asc>:
     240:	03050513          	addi	a0,a0,48
     244:	00008067          	ret

00000248 <delay>:
     248:	ffc10113          	addi	sp,sp,-4
     24c:	00112023          	sw	ra,0(sp)

00000250 <out_loop>:
     250:	02a05263          	blez	a0,274 <done_out_loop>
     254:	fff50513          	addi	a0,a0,-1
     258:	00000293          	li	t0,0
     25c:	00002337          	lui	t1,0x2
     260:	70f30313          	addi	t1,t1,1807 # 270f <__global_pointer+0xc02>

00000264 <in_loop>:
     264:	00628663          	beq	t0,t1,270 <done_in_loop>
     268:	00128293          	addi	t0,t0,1
     26c:	ff9ff06f          	j	264 <in_loop>

00000270 <done_in_loop>:
     270:	fe1ff06f          	j	250 <out_loop>

00000274 <done_out_loop>:
     274:	00012083          	lw	ra,0(sp)
     278:	00410113          	addi	sp,sp,4
     27c:	00008067          	ret

00000280 <time2string>:
     280:	ffc10113          	addi	sp,sp,-4
     284:	00112023          	sw	ra,0(sp)
     288:	ffc10113          	addi	sp,sp,-4
     28c:	00812023          	sw	s0,0(sp)
     290:	00a00433          	add	s0,zero,a0
     294:	00000293          	li	t0,0
     298:	005402a3          	sb	t0,5(s0)
     29c:	00f5f513          	andi	a0,a1,15
     2a0:	fa1ff0ef          	jal	240 <hex2asc>
     2a4:	00a40223          	sb	a0,4(s0)
     2a8:	0045d593          	srli	a1,a1,0x4
     2ac:	00f5f513          	andi	a0,a1,15
     2b0:	f91ff0ef          	jal	240 <hex2asc>
     2b4:	00a401a3          	sb	a0,3(s0)
     2b8:	0045d593          	srli	a1,a1,0x4
     2bc:	03a00293          	li	t0,58
     2c0:	00540123          	sb	t0,2(s0)
     2c4:	00f5f513          	andi	a0,a1,15
     2c8:	f79ff0ef          	jal	240 <hex2asc>
     2cc:	00a400a3          	sb	a0,1(s0)
     2d0:	0045d593          	srli	a1,a1,0x4
     2d4:	00f5f513          	andi	a0,a1,15
     2d8:	f69ff0ef          	jal	240 <hex2asc>
     2dc:	00a40023          	sb	a0,0(s0)
     2e0:	00012403          	lw	s0,0(sp)
     2e4:	00410113          	addi	sp,sp,4
     2e8:	00012083          	lw	ra,0(sp)
     2ec:	00410113          	addi	sp,sp,4
     2f0:	00008067          	ret

000002f4 <printc>:
     2f4:	04000737          	lui	a4,0x4000
     2f8:	04470713          	addi	a4,a4,68 # 4000044 <_stack_end+0x3efec88>
     2fc:	000106b7          	lui	a3,0x10
     300:	00072783          	lw	a5,0(a4)
     304:	fed7eee3          	bltu	a5,a3,300 <printc+0xc>
     308:	040007b7          	lui	a5,0x4000
     30c:	04a7a023          	sw	a0,64(a5) # 4000040 <_stack_end+0x3efec84>
     310:	00008067          	ret

00000314 <print>:
     314:	00054603          	lbu	a2,0(a0)
     318:	02060863          	beqz	a2,348 <print+0x34>
     31c:	04000737          	lui	a4,0x4000
     320:	040005b7          	lui	a1,0x4000
     324:	04470713          	addi	a4,a4,68 # 4000044 <_stack_end+0x3efec88>
     328:	000106b7          	lui	a3,0x10
     32c:	04058593          	addi	a1,a1,64 # 4000040 <_stack_end+0x3efec84>
     330:	00072783          	lw	a5,0(a4)
     334:	fed7eee3          	bltu	a5,a3,330 <print+0x1c>
     338:	00c5a023          	sw	a2,0(a1)
     33c:	00154603          	lbu	a2,1(a0)
     340:	00150513          	addi	a0,a0,1
     344:	fe0616e3          	bnez	a2,330 <print+0x1c>
     348:	00008067          	ret

0000034c <print_dec>:
     34c:	3b9ad737          	lui	a4,0x3b9ad
     350:	040006b7          	lui	a3,0x4000
     354:	04000337          	lui	t1,0x4000
     358:	00a00593          	li	a1,10
     35c:	00000793          	li	a5,0
     360:	a0070713          	addi	a4,a4,-1536 # 3b9aca00 <_stack_end+0x3b8ab644>
     364:	04468693          	addi	a3,a3,68 # 4000044 <_stack_end+0x3efec88>
     368:	00010637          	lui	a2,0x10
     36c:	04030313          	addi	t1,t1,64 # 4000040 <_stack_end+0x3efec84>
     370:	00a00893          	li	a7,10
     374:	04e57063          	bgeu	a0,a4,3b4 <print_dec+0x68>
     378:	02079e63          	bnez	a5,3b4 <print_dec+0x68>
     37c:	fff58593          	addi	a1,a1,-1
     380:	02e57533          	remu	a0,a0,a4
     384:	03175733          	divu	a4,a4,a7
     388:	fe0596e3          	bnez	a1,374 <print_dec+0x28>
     38c:	02079263          	bnez	a5,3b0 <print_dec+0x64>
     390:	04000737          	lui	a4,0x4000
     394:	04470713          	addi	a4,a4,68 # 4000044 <_stack_end+0x3efec88>
     398:	000106b7          	lui	a3,0x10
     39c:	00072783          	lw	a5,0(a4)
     3a0:	fed7eee3          	bltu	a5,a3,39c <print_dec+0x50>
     3a4:	040007b7          	lui	a5,0x4000
     3a8:	03000713          	li	a4,48
     3ac:	04e7a023          	sw	a4,64(a5) # 4000040 <_stack_end+0x3efec84>
     3b0:	00008067          	ret
     3b4:	02e55833          	divu	a6,a0,a4
     3b8:	03080813          	addi	a6,a6,48
     3bc:	0ff87813          	zext.b	a6,a6
     3c0:	0006a783          	lw	a5,0(a3) # 10000 <__global_pointer+0xe4f3>
     3c4:	fec7eee3          	bltu	a5,a2,3c0 <print_dec+0x74>
     3c8:	01032023          	sw	a6,0(t1)
     3cc:	00100793          	li	a5,1
     3d0:	fadff06f          	j	37c <print_dec+0x30>

000003d4 <print_hex32>:
     3d4:	04000737          	lui	a4,0x4000
     3d8:	04470713          	addi	a4,a4,68 # 4000044 <_stack_end+0x3efec88>
     3dc:	000106b7          	lui	a3,0x10
     3e0:	00072783          	lw	a5,0(a4)
     3e4:	fed7eee3          	bltu	a5,a3,3e0 <print_hex32+0xc>
     3e8:	03000693          	li	a3,48
     3ec:	040007b7          	lui	a5,0x4000
     3f0:	04000737          	lui	a4,0x4000
     3f4:	04d7a023          	sw	a3,64(a5) # 4000040 <_stack_end+0x3efec84>
     3f8:	04470713          	addi	a4,a4,68 # 4000044 <_stack_end+0x3efec88>
     3fc:	000106b7          	lui	a3,0x10
     400:	00072783          	lw	a5,0(a4)
     404:	fed7eee3          	bltu	a5,a3,400 <print_hex32+0x2c>
     408:	04000837          	lui	a6,0x4000
     40c:	04080813          	addi	a6,a6,64 # 4000040 <_stack_end+0x3efec84>
     410:	04000737          	lui	a4,0x4000
     414:	07800793          	li	a5,120
     418:	00f82023          	sw	a5,0(a6)
     41c:	01c00613          	li	a2,28
     420:	00900313          	li	t1,9
     424:	04470713          	addi	a4,a4,68 # 4000044 <_stack_end+0x3efec88>
     428:	000106b7          	lui	a3,0x10
     42c:	ffc00893          	li	a7,-4
     430:	00c557b3          	srl	a5,a0,a2
     434:	00f7f793          	andi	a5,a5,15
     438:	03778593          	addi	a1,a5,55
     43c:	00f36463          	bltu	t1,a5,444 <print_hex32+0x70>
     440:	03078593          	addi	a1,a5,48
     444:	00072783          	lw	a5,0(a4)
     448:	fed7eee3          	bltu	a5,a3,444 <print_hex32+0x70>
     44c:	00b82023          	sw	a1,0(a6)
     450:	ffc60613          	addi	a2,a2,-4 # fffc <__global_pointer+0xe4ef>
     454:	fd161ee3          	bne	a2,a7,430 <print_hex32+0x5c>
     458:	00008067          	ret

0000045c <handle_exception>:
     45c:	00200793          	li	a5,2
     460:	18f80863          	beq	a6,a5,5f0 <handle_exception+0x194>
     464:	00b00793          	li	a5,11
     468:	12f80063          	beq	a6,a5,588 <handle_exception+0x12c>
     46c:	04000737          	lui	a4,0x4000
     470:	14081463          	bnez	a6,5b8 <handle_exception+0x15c>
     474:	04000837          	lui	a6,0x4000
     478:	00001637          	lui	a2,0x1
     47c:	33460613          	addi	a2,a2,820 # 1334 <mytime+0x4>
     480:	00a00593          	li	a1,10
     484:	04470713          	addi	a4,a4,68 # 4000044 <_stack_end+0x3efec88>
     488:	000106b7          	lui	a3,0x10
     48c:	04080813          	addi	a6,a6,64 # 4000040 <_stack_end+0x3efec84>
     490:	00072783          	lw	a5,0(a4)
     494:	fed7eee3          	bltu	a5,a3,490 <handle_exception+0x34>
     498:	00b82023          	sw	a1,0(a6)
     49c:	00164583          	lbu	a1,1(a2)
     4a0:	00160613          	addi	a2,a2,1
     4a4:	fe0596e3          	bnez	a1,490 <handle_exception+0x34>
     4a8:	04000737          	lui	a4,0x4000
     4ac:	04000837          	lui	a6,0x4000
     4b0:	00001637          	lui	a2,0x1
     4b4:	3a860613          	addi	a2,a2,936 # 13a8 <mytime+0x78>
     4b8:	04500593          	li	a1,69
     4bc:	04470713          	addi	a4,a4,68 # 4000044 <_stack_end+0x3efec88>
     4c0:	000106b7          	lui	a3,0x10
     4c4:	04080813          	addi	a6,a6,64 # 4000040 <_stack_end+0x3efec84>
     4c8:	00072783          	lw	a5,0(a4)
     4cc:	fed7eee3          	bltu	a5,a3,4c8 <handle_exception+0x6c>
     4d0:	00b82023          	sw	a1,0(a6)
     4d4:	00164583          	lbu	a1,1(a2)
     4d8:	00160613          	addi	a2,a2,1
     4dc:	fe0596e3          	bnez	a1,4c8 <handle_exception+0x6c>
     4e0:	04000737          	lui	a4,0x4000
     4e4:	04470713          	addi	a4,a4,68 # 4000044 <_stack_end+0x3efec88>
     4e8:	000106b7          	lui	a3,0x10
     4ec:	00072783          	lw	a5,0(a4)
     4f0:	fed7eee3          	bltu	a5,a3,4ec <handle_exception+0x90>
     4f4:	03000693          	li	a3,48
     4f8:	040007b7          	lui	a5,0x4000
     4fc:	04000737          	lui	a4,0x4000
     500:	04d7a023          	sw	a3,64(a5) # 4000040 <_stack_end+0x3efec84>
     504:	04470713          	addi	a4,a4,68 # 4000044 <_stack_end+0x3efec88>
     508:	000106b7          	lui	a3,0x10
     50c:	00072783          	lw	a5,0(a4)
     510:	fed7eee3          	bltu	a5,a3,50c <handle_exception+0xb0>
     514:	04000837          	lui	a6,0x4000
     518:	04080813          	addi	a6,a6,64 # 4000040 <_stack_end+0x3efec84>
     51c:	04000737          	lui	a4,0x4000
     520:	07800793          	li	a5,120
     524:	00f82023          	sw	a5,0(a6)
     528:	01c00613          	li	a2,28
     52c:	00900313          	li	t1,9
     530:	04470713          	addi	a4,a4,68 # 4000044 <_stack_end+0x3efec88>
     534:	000106b7          	lui	a3,0x10
     538:	ffc00893          	li	a7,-4
     53c:	00c557b3          	srl	a5,a0,a2
     540:	00f7f793          	andi	a5,a5,15
     544:	03778593          	addi	a1,a5,55
     548:	00f36463          	bltu	t1,a5,550 <handle_exception+0xf4>
     54c:	03078593          	addi	a1,a5,48
     550:	00072783          	lw	a5,0(a4)
     554:	fed7eee3          	bltu	a5,a3,550 <handle_exception+0xf4>
     558:	00b82023          	sw	a1,0(a6)
     55c:	ffc60613          	addi	a2,a2,-4
     560:	fd161ee3          	bne	a2,a7,53c <handle_exception+0xe0>
     564:	04000737          	lui	a4,0x4000
     568:	04470713          	addi	a4,a4,68 # 4000044 <_stack_end+0x3efec88>
     56c:	000106b7          	lui	a3,0x10
     570:	00072783          	lw	a5,0(a4)
     574:	fed7eee3          	bltu	a5,a3,570 <handle_exception+0x114>
     578:	040007b7          	lui	a5,0x4000
     57c:	00a00713          	li	a4,10
     580:	04e7a023          	sw	a4,64(a5) # 4000040 <_stack_end+0x3efec84>
     584:	0000006f          	j	584 <handle_exception+0x128>
     588:	00400793          	li	a5,4
     58c:	0af88063          	beq	a7,a5,62c <handle_exception+0x1d0>
     590:	0d089a63          	bne	a7,a6,664 <handle_exception+0x208>
     594:	04000737          	lui	a4,0x4000
     598:	04470713          	addi	a4,a4,68 # 4000044 <_stack_end+0x3efec88>
     59c:	000106b7          	lui	a3,0x10
     5a0:	00072783          	lw	a5,0(a4)
     5a4:	fed7eee3          	bltu	a5,a3,5a0 <handle_exception+0x144>
     5a8:	040007b7          	lui	a5,0x4000
     5ac:	0ff57513          	zext.b	a0,a0
     5b0:	04a7a023          	sw	a0,64(a5) # 4000040 <_stack_end+0x3efec84>
     5b4:	00008067          	ret
     5b8:	04000837          	lui	a6,0x4000
     5bc:	00001637          	lui	a2,0x1
     5c0:	38860613          	addi	a2,a2,904 # 1388 <mytime+0x58>
     5c4:	00a00593          	li	a1,10
     5c8:	04470713          	addi	a4,a4,68
     5cc:	000106b7          	lui	a3,0x10
     5d0:	04080813          	addi	a6,a6,64 # 4000040 <_stack_end+0x3efec84>
     5d4:	00072783          	lw	a5,0(a4)
     5d8:	fed7eee3          	bltu	a5,a3,5d4 <handle_exception+0x178>
     5dc:	00b82023          	sw	a1,0(a6)
     5e0:	00164583          	lbu	a1,1(a2)
     5e4:	00160613          	addi	a2,a2,1
     5e8:	fe0596e3          	bnez	a1,5d4 <handle_exception+0x178>
     5ec:	ebdff06f          	j	4a8 <handle_exception+0x4c>
     5f0:	04000737          	lui	a4,0x4000
     5f4:	04000837          	lui	a6,0x4000
     5f8:	00001637          	lui	a2,0x1
     5fc:	36460613          	addi	a2,a2,868 # 1364 <mytime+0x34>
     600:	00a00593          	li	a1,10
     604:	04470713          	addi	a4,a4,68 # 4000044 <_stack_end+0x3efec88>
     608:	000106b7          	lui	a3,0x10
     60c:	04080813          	addi	a6,a6,64 # 4000040 <_stack_end+0x3efec84>
     610:	00072783          	lw	a5,0(a4)
     614:	fed7eee3          	bltu	a5,a3,610 <handle_exception+0x1b4>
     618:	00b82023          	sw	a1,0(a6)
     61c:	00164583          	lbu	a1,1(a2)
     620:	00160613          	addi	a2,a2,1
     624:	fe0596e3          	bnez	a1,610 <handle_exception+0x1b4>
     628:	e81ff06f          	j	4a8 <handle_exception+0x4c>
     62c:	00054603          	lbu	a2,0(a0)
     630:	02060a63          	beqz	a2,664 <handle_exception+0x208>
     634:	04000737          	lui	a4,0x4000
     638:	040005b7          	lui	a1,0x4000
     63c:	04470713          	addi	a4,a4,68 # 4000044 <_stack_end+0x3efec88>
     640:	000106b7          	lui	a3,0x10
     644:	04058593          	addi	a1,a1,64 # 4000040 <_stack_end+0x3efec84>
     648:	00072783          	lw	a5,0(a4)
     64c:	fed7eee3          	bltu	a5,a3,648 <handle_exception+0x1ec>
     650:	00c5a023          	sw	a2,0(a1)
     654:	00154603          	lbu	a2,1(a0)
     658:	00150513          	addi	a0,a0,1
     65c:	fe0616e3          	bnez	a2,648 <handle_exception+0x1ec>
     660:	00008067          	ret
     664:	00008067          	ret

00000668 <nextprime>:
     668:	00200713          	li	a4,2
     66c:	00050793          	mv	a5,a0
     670:	02a74063          	blt	a4,a0,690 <nextprime+0x28>
     674:	00100513          	li	a0,1
     678:	00f05a63          	blez	a5,68c <nextprime+0x24>
     67c:	fff78793          	addi	a5,a5,-1
     680:	00f037b3          	snez	a5,a5
     684:	00278513          	addi	a0,a5,2
     688:	00008067          	ret
     68c:	00008067          	ret
     690:	00150793          	addi	a5,a0,1
     694:	0017e513          	ori	a0,a5,1
     698:	00300613          	li	a2,3
     69c:	02c567b3          	rem	a5,a0,a2
     6a0:	40155693          	srai	a3,a0,0x1
     6a4:	02078263          	beqz	a5,6c8 <nextprime+0x60>
     6a8:	00268693          	addi	a3,a3,2 # 10002 <__global_pointer+0xe4f5>
     6ac:	00300793          	li	a5,3
     6b0:	00c0006f          	j	6bc <nextprime+0x54>
     6b4:	02f56733          	rem	a4,a0,a5
     6b8:	00070863          	beqz	a4,6c8 <nextprime+0x60>
     6bc:	00178793          	addi	a5,a5,1
     6c0:	fef69ae3          	bne	a3,a5,6b4 <nextprime+0x4c>
     6c4:	00008067          	ret
     6c8:	00250513          	addi	a0,a0,2
     6cc:	fd1ff06f          	j	69c <nextprime+0x34>

000006d0 <set_displays.constprop.0>:
     6d0:	02050663          	beqz	a0,6fc <set_displays.constprop.0+0x2c>
     6d4:	00100793          	li	a5,1
     6d8:	02f50a63          	beq	a0,a5,70c <set_displays.constprop.0+0x3c>
     6dc:	00200793          	li	a5,2
     6e0:	02f51e63          	bne	a0,a5,71c <set_displays.constprop.0+0x4c>
     6e4:	040007b7          	lui	a5,0x4000
     6e8:	fa400713          	li	a4,-92
     6ec:	0ae78023          	sb	a4,160(a5) # 40000a0 <_stack_end+0x3efece4>
     6f0:	00008067          	ret
     6f4:	00a00793          	li	a5,10
     6f8:	00f51863          	bne	a0,a5,708 <set_displays.constprop.0+0x38>
     6fc:	040007b7          	lui	a5,0x4000
     700:	fc000713          	li	a4,-64
     704:	0ae78023          	sb	a4,160(a5) # 40000a0 <_stack_end+0x3efece4>
     708:	00008067          	ret
     70c:	040007b7          	lui	a5,0x4000
     710:	ff900713          	li	a4,-7
     714:	0ae78023          	sb	a4,160(a5) # 40000a0 <_stack_end+0x3efece4>
     718:	00008067          	ret
     71c:	00300793          	li	a5,3
     720:	00f51a63          	bne	a0,a5,734 <set_displays.constprop.0+0x64>
     724:	040007b7          	lui	a5,0x4000
     728:	fb000713          	li	a4,-80
     72c:	0ae78023          	sb	a4,160(a5) # 40000a0 <_stack_end+0x3efece4>
     730:	00008067          	ret
     734:	00400793          	li	a5,4
     738:	00f50e63          	beq	a0,a5,754 <set_displays.constprop.0+0x84>
     73c:	00500793          	li	a5,5
     740:	02f51263          	bne	a0,a5,764 <set_displays.constprop.0+0x94>
     744:	040007b7          	lui	a5,0x4000
     748:	f9200713          	li	a4,-110
     74c:	0ae78023          	sb	a4,160(a5) # 40000a0 <_stack_end+0x3efece4>
     750:	00008067          	ret
     754:	040007b7          	lui	a5,0x4000
     758:	f9900713          	li	a4,-103
     75c:	0ae78023          	sb	a4,160(a5) # 40000a0 <_stack_end+0x3efece4>
     760:	00008067          	ret
     764:	00600793          	li	a5,6
     768:	00f51a63          	bne	a0,a5,77c <set_displays.constprop.0+0xac>
     76c:	040007b7          	lui	a5,0x4000
     770:	f8200713          	li	a4,-126
     774:	0ae78023          	sb	a4,160(a5) # 40000a0 <_stack_end+0x3efece4>
     778:	00008067          	ret
     77c:	00700793          	li	a5,7
     780:	00f50e63          	beq	a0,a5,79c <set_displays.constprop.0+0xcc>
     784:	00800793          	li	a5,8
     788:	02f51263          	bne	a0,a5,7ac <set_displays.constprop.0+0xdc>
     78c:	040007b7          	lui	a5,0x4000
     790:	f8000713          	li	a4,-128
     794:	0ae78023          	sb	a4,160(a5) # 40000a0 <_stack_end+0x3efece4>
     798:	00008067          	ret
     79c:	040007b7          	lui	a5,0x4000
     7a0:	ff800713          	li	a4,-8
     7a4:	0ae78023          	sb	a4,160(a5) # 40000a0 <_stack_end+0x3efece4>
     7a8:	00008067          	ret
     7ac:	00900793          	li	a5,9
     7b0:	f4f512e3          	bne	a0,a5,6f4 <set_displays.constprop.0+0x24>
     7b4:	040007b7          	lui	a5,0x4000
     7b8:	f9000713          	li	a4,-112
     7bc:	0ae78023          	sb	a4,160(a5) # 40000a0 <_stack_end+0x3efece4>
     7c0:	00008067          	ret

000007c4 <set_displays.constprop.1>:
     7c4:	02050e63          	beqz	a0,800 <__heap_size>
     7c8:	00100793          	li	a5,1
     7cc:	04f50a63          	beq	a0,a5,820 <__heap_size+0x20>
     7d0:	00200793          	li	a5,2
     7d4:	06f51663          	bne	a0,a5,840 <__heap_size+0x40>
     7d8:	040007b7          	lui	a5,0x4000
     7dc:	fa400713          	li	a4,-92
     7e0:	08e78823          	sb	a4,144(a5) # 4000090 <_stack_end+0x3efecd4>
     7e4:	040007b7          	lui	a5,0x4000
     7e8:	0907c703          	lbu	a4,144(a5) # 4000090 <_stack_end+0x3efecd4>
     7ec:	08074713          	xori	a4,a4,128
     7f0:	08e78823          	sb	a4,144(a5)
     7f4:	00008067          	ret
     7f8:	00a00793          	li	a5,10
     7fc:	00f51863          	bne	a0,a5,80c <__heap_size+0xc>
     800:	040007b7          	lui	a5,0x4000
     804:	fc000713          	li	a4,-64
     808:	08e78823          	sb	a4,144(a5) # 4000090 <_stack_end+0x3efecd4>
     80c:	040007b7          	lui	a5,0x4000
     810:	0907c703          	lbu	a4,144(a5) # 4000090 <_stack_end+0x3efecd4>
     814:	08074713          	xori	a4,a4,128
     818:	08e78823          	sb	a4,144(a5)
     81c:	00008067          	ret
     820:	040007b7          	lui	a5,0x4000
     824:	ff900713          	li	a4,-7
     828:	08e78823          	sb	a4,144(a5) # 4000090 <_stack_end+0x3efecd4>
     82c:	040007b7          	lui	a5,0x4000
     830:	0907c703          	lbu	a4,144(a5) # 4000090 <_stack_end+0x3efecd4>
     834:	08074713          	xori	a4,a4,128
     838:	08e78823          	sb	a4,144(a5)
     83c:	00008067          	ret
     840:	00300793          	li	a5,3
     844:	00f51a63          	bne	a0,a5,858 <__heap_size+0x58>
     848:	040007b7          	lui	a5,0x4000
     84c:	fb000713          	li	a4,-80
     850:	08e78823          	sb	a4,144(a5) # 4000090 <_stack_end+0x3efecd4>
     854:	fb9ff06f          	j	80c <__heap_size+0xc>
     858:	00400793          	li	a5,4
     85c:	00f50e63          	beq	a0,a5,878 <__heap_size+0x78>
     860:	00500793          	li	a5,5
     864:	02f51a63          	bne	a0,a5,898 <__heap_size+0x98>
     868:	040007b7          	lui	a5,0x4000
     86c:	f9200713          	li	a4,-110
     870:	08e78823          	sb	a4,144(a5) # 4000090 <_stack_end+0x3efecd4>
     874:	f99ff06f          	j	80c <__heap_size+0xc>
     878:	040007b7          	lui	a5,0x4000
     87c:	f9900713          	li	a4,-103
     880:	08e78823          	sb	a4,144(a5) # 4000090 <_stack_end+0x3efecd4>
     884:	040007b7          	lui	a5,0x4000
     888:	0907c703          	lbu	a4,144(a5) # 4000090 <_stack_end+0x3efecd4>
     88c:	08074713          	xori	a4,a4,128
     890:	08e78823          	sb	a4,144(a5)
     894:	00008067          	ret
     898:	00600793          	li	a5,6
     89c:	00f51a63          	bne	a0,a5,8b0 <__heap_size+0xb0>
     8a0:	040007b7          	lui	a5,0x4000
     8a4:	f8200713          	li	a4,-126
     8a8:	08e78823          	sb	a4,144(a5) # 4000090 <_stack_end+0x3efecd4>
     8ac:	f61ff06f          	j	80c <__heap_size+0xc>
     8b0:	00700793          	li	a5,7
     8b4:	02f50663          	beq	a0,a5,8e0 <__heap_size+0xe0>
     8b8:	00800793          	li	a5,8
     8bc:	04f51263          	bne	a0,a5,900 <__heap_size+0x100>
     8c0:	040007b7          	lui	a5,0x4000
     8c4:	f8000713          	li	a4,-128
     8c8:	08e78823          	sb	a4,144(a5) # 4000090 <_stack_end+0x3efecd4>
     8cc:	040007b7          	lui	a5,0x4000
     8d0:	0907c703          	lbu	a4,144(a5) # 4000090 <_stack_end+0x3efecd4>
     8d4:	08074713          	xori	a4,a4,128
     8d8:	08e78823          	sb	a4,144(a5)
     8dc:	00008067          	ret
     8e0:	040007b7          	lui	a5,0x4000
     8e4:	ff800713          	li	a4,-8
     8e8:	08e78823          	sb	a4,144(a5) # 4000090 <_stack_end+0x3efecd4>
     8ec:	040007b7          	lui	a5,0x4000
     8f0:	0907c703          	lbu	a4,144(a5) # 4000090 <_stack_end+0x3efecd4>
     8f4:	08074713          	xori	a4,a4,128
     8f8:	08e78823          	sb	a4,144(a5)
     8fc:	00008067          	ret
     900:	00900793          	li	a5,9
     904:	eef51ae3          	bne	a0,a5,7f8 <set_displays.constprop.1+0x34>
     908:	040007b7          	lui	a5,0x4000
     90c:	f9000713          	li	a4,-112
     910:	08e78823          	sb	a4,144(a5) # 4000090 <_stack_end+0x3efecd4>
     914:	ef9ff06f          	j	80c <__heap_size+0xc>

00000918 <set_displays.constprop.2>:
     918:	02050663          	beqz	a0,944 <set_displays.constprop.2+0x2c>
     91c:	00100793          	li	a5,1
     920:	02f50a63          	beq	a0,a5,954 <set_displays.constprop.2+0x3c>
     924:	00200793          	li	a5,2
     928:	02f51e63          	bne	a0,a5,964 <set_displays.constprop.2+0x4c>
     92c:	040007b7          	lui	a5,0x4000
     930:	fa400713          	li	a4,-92
     934:	08e78023          	sb	a4,128(a5) # 4000080 <_stack_end+0x3efecc4>
     938:	00008067          	ret
     93c:	00a00793          	li	a5,10
     940:	00f51863          	bne	a0,a5,950 <set_displays.constprop.2+0x38>
     944:	040007b7          	lui	a5,0x4000
     948:	fc000713          	li	a4,-64
     94c:	08e78023          	sb	a4,128(a5) # 4000080 <_stack_end+0x3efecc4>
     950:	00008067          	ret
     954:	040007b7          	lui	a5,0x4000
     958:	ff900713          	li	a4,-7
     95c:	08e78023          	sb	a4,128(a5) # 4000080 <_stack_end+0x3efecc4>
     960:	00008067          	ret
     964:	00300793          	li	a5,3
     968:	00f51a63          	bne	a0,a5,97c <set_displays.constprop.2+0x64>
     96c:	040007b7          	lui	a5,0x4000
     970:	fb000713          	li	a4,-80
     974:	08e78023          	sb	a4,128(a5) # 4000080 <_stack_end+0x3efecc4>
     978:	00008067          	ret
     97c:	00400793          	li	a5,4
     980:	00f50e63          	beq	a0,a5,99c <set_displays.constprop.2+0x84>
     984:	00500793          	li	a5,5
     988:	02f51263          	bne	a0,a5,9ac <set_displays.constprop.2+0x94>
     98c:	040007b7          	lui	a5,0x4000
     990:	f9200713          	li	a4,-110
     994:	08e78023          	sb	a4,128(a5) # 4000080 <_stack_end+0x3efecc4>
     998:	00008067          	ret
     99c:	040007b7          	lui	a5,0x4000
     9a0:	f9900713          	li	a4,-103
     9a4:	08e78023          	sb	a4,128(a5) # 4000080 <_stack_end+0x3efecc4>
     9a8:	00008067          	ret
     9ac:	00600793          	li	a5,6
     9b0:	00f51a63          	bne	a0,a5,9c4 <set_displays.constprop.2+0xac>
     9b4:	040007b7          	lui	a5,0x4000
     9b8:	f8200713          	li	a4,-126
     9bc:	08e78023          	sb	a4,128(a5) # 4000080 <_stack_end+0x3efecc4>
     9c0:	00008067          	ret
     9c4:	00700793          	li	a5,7
     9c8:	00f50e63          	beq	a0,a5,9e4 <set_displays.constprop.2+0xcc>
     9cc:	00800793          	li	a5,8
     9d0:	02f51263          	bne	a0,a5,9f4 <set_displays.constprop.2+0xdc>
     9d4:	040007b7          	lui	a5,0x4000
     9d8:	f8000713          	li	a4,-128
     9dc:	08e78023          	sb	a4,128(a5) # 4000080 <_stack_end+0x3efecc4>
     9e0:	00008067          	ret
     9e4:	040007b7          	lui	a5,0x4000
     9e8:	ff800713          	li	a4,-8
     9ec:	08e78023          	sb	a4,128(a5) # 4000080 <_stack_end+0x3efecc4>
     9f0:	00008067          	ret
     9f4:	00900793          	li	a5,9
     9f8:	f4f512e3          	bne	a0,a5,93c <set_displays.constprop.2+0x24>
     9fc:	040007b7          	lui	a5,0x4000
     a00:	f9000713          	li	a4,-112
     a04:	08e78023          	sb	a4,128(a5) # 4000080 <_stack_end+0x3efecc4>
     a08:	00008067          	ret

00000a0c <set_displays.constprop.3>:
     a0c:	02050e63          	beqz	a0,a48 <set_displays.constprop.3+0x3c>
     a10:	00100793          	li	a5,1
     a14:	04f50a63          	beq	a0,a5,a68 <set_displays.constprop.3+0x5c>
     a18:	00200793          	li	a5,2
     a1c:	06f51663          	bne	a0,a5,a88 <set_displays.constprop.3+0x7c>
     a20:	040007b7          	lui	a5,0x4000
     a24:	fa400713          	li	a4,-92
     a28:	06e78823          	sb	a4,112(a5) # 4000070 <_stack_end+0x3efecb4>
     a2c:	040007b7          	lui	a5,0x4000
     a30:	0707c703          	lbu	a4,112(a5) # 4000070 <_stack_end+0x3efecb4>
     a34:	08074713          	xori	a4,a4,128
     a38:	06e78823          	sb	a4,112(a5)
     a3c:	00008067          	ret
     a40:	00a00793          	li	a5,10
     a44:	00f51863          	bne	a0,a5,a54 <set_displays.constprop.3+0x48>
     a48:	040007b7          	lui	a5,0x4000
     a4c:	fc000713          	li	a4,-64
     a50:	06e78823          	sb	a4,112(a5) # 4000070 <_stack_end+0x3efecb4>
     a54:	040007b7          	lui	a5,0x4000
     a58:	0707c703          	lbu	a4,112(a5) # 4000070 <_stack_end+0x3efecb4>
     a5c:	08074713          	xori	a4,a4,128
     a60:	06e78823          	sb	a4,112(a5)
     a64:	00008067          	ret
     a68:	040007b7          	lui	a5,0x4000
     a6c:	ff900713          	li	a4,-7
     a70:	06e78823          	sb	a4,112(a5) # 4000070 <_stack_end+0x3efecb4>
     a74:	040007b7          	lui	a5,0x4000
     a78:	0707c703          	lbu	a4,112(a5) # 4000070 <_stack_end+0x3efecb4>
     a7c:	08074713          	xori	a4,a4,128
     a80:	06e78823          	sb	a4,112(a5)
     a84:	00008067          	ret
     a88:	00300793          	li	a5,3
     a8c:	00f51a63          	bne	a0,a5,aa0 <set_displays.constprop.3+0x94>
     a90:	040007b7          	lui	a5,0x4000
     a94:	fb000713          	li	a4,-80
     a98:	06e78823          	sb	a4,112(a5) # 4000070 <_stack_end+0x3efecb4>
     a9c:	fb9ff06f          	j	a54 <set_displays.constprop.3+0x48>
     aa0:	00400793          	li	a5,4
     aa4:	00f50e63          	beq	a0,a5,ac0 <set_displays.constprop.3+0xb4>
     aa8:	00500793          	li	a5,5
     aac:	02f51a63          	bne	a0,a5,ae0 <set_displays.constprop.3+0xd4>
     ab0:	040007b7          	lui	a5,0x4000
     ab4:	f9200713          	li	a4,-110
     ab8:	06e78823          	sb	a4,112(a5) # 4000070 <_stack_end+0x3efecb4>
     abc:	f99ff06f          	j	a54 <set_displays.constprop.3+0x48>
     ac0:	040007b7          	lui	a5,0x4000
     ac4:	f9900713          	li	a4,-103
     ac8:	06e78823          	sb	a4,112(a5) # 4000070 <_stack_end+0x3efecb4>
     acc:	040007b7          	lui	a5,0x4000
     ad0:	0707c703          	lbu	a4,112(a5) # 4000070 <_stack_end+0x3efecb4>
     ad4:	08074713          	xori	a4,a4,128
     ad8:	06e78823          	sb	a4,112(a5)
     adc:	00008067          	ret
     ae0:	00600793          	li	a5,6
     ae4:	00f51a63          	bne	a0,a5,af8 <set_displays.constprop.3+0xec>
     ae8:	040007b7          	lui	a5,0x4000
     aec:	f8200713          	li	a4,-126
     af0:	06e78823          	sb	a4,112(a5) # 4000070 <_stack_end+0x3efecb4>
     af4:	f61ff06f          	j	a54 <set_displays.constprop.3+0x48>
     af8:	00700793          	li	a5,7
     afc:	02f50663          	beq	a0,a5,b28 <set_displays.constprop.3+0x11c>
     b00:	00800793          	li	a5,8
     b04:	04f51263          	bne	a0,a5,b48 <set_displays.constprop.3+0x13c>
     b08:	040007b7          	lui	a5,0x4000
     b0c:	f8000713          	li	a4,-128
     b10:	06e78823          	sb	a4,112(a5) # 4000070 <_stack_end+0x3efecb4>
     b14:	040007b7          	lui	a5,0x4000
     b18:	0707c703          	lbu	a4,112(a5) # 4000070 <_stack_end+0x3efecb4>
     b1c:	08074713          	xori	a4,a4,128
     b20:	06e78823          	sb	a4,112(a5)
     b24:	00008067          	ret
     b28:	040007b7          	lui	a5,0x4000
     b2c:	ff800713          	li	a4,-8
     b30:	06e78823          	sb	a4,112(a5) # 4000070 <_stack_end+0x3efecb4>
     b34:	040007b7          	lui	a5,0x4000
     b38:	0707c703          	lbu	a4,112(a5) # 4000070 <_stack_end+0x3efecb4>
     b3c:	08074713          	xori	a4,a4,128
     b40:	06e78823          	sb	a4,112(a5)
     b44:	00008067          	ret
     b48:	00900793          	li	a5,9
     b4c:	eef51ae3          	bne	a0,a5,a40 <set_displays.constprop.3+0x34>
     b50:	040007b7          	lui	a5,0x4000
     b54:	f9000713          	li	a4,-112
     b58:	06e78823          	sb	a4,112(a5) # 4000070 <_stack_end+0x3efecb4>
     b5c:	ef9ff06f          	j	a54 <set_displays.constprop.3+0x48>

00000b60 <set_displays.constprop.5>:
     b60:	02050663          	beqz	a0,b8c <set_displays.constprop.5+0x2c>
     b64:	00100793          	li	a5,1
     b68:	02f50a63          	beq	a0,a5,b9c <set_displays.constprop.5+0x3c>
     b6c:	00200793          	li	a5,2
     b70:	02f51e63          	bne	a0,a5,bac <set_displays.constprop.5+0x4c>
     b74:	040007b7          	lui	a5,0x4000
     b78:	fa400713          	li	a4,-92
     b7c:	04e78823          	sb	a4,80(a5) # 4000050 <_stack_end+0x3efec94>
     b80:	00008067          	ret
     b84:	00a00793          	li	a5,10
     b88:	00f51863          	bne	a0,a5,b98 <set_displays.constprop.5+0x38>
     b8c:	040007b7          	lui	a5,0x4000
     b90:	fc000713          	li	a4,-64
     b94:	04e78823          	sb	a4,80(a5) # 4000050 <_stack_end+0x3efec94>
     b98:	00008067          	ret
     b9c:	040007b7          	lui	a5,0x4000
     ba0:	ff900713          	li	a4,-7
     ba4:	04e78823          	sb	a4,80(a5) # 4000050 <_stack_end+0x3efec94>
     ba8:	00008067          	ret
     bac:	00300793          	li	a5,3
     bb0:	00f51a63          	bne	a0,a5,bc4 <set_displays.constprop.5+0x64>
     bb4:	040007b7          	lui	a5,0x4000
     bb8:	fb000713          	li	a4,-80
     bbc:	04e78823          	sb	a4,80(a5) # 4000050 <_stack_end+0x3efec94>
     bc0:	00008067          	ret
     bc4:	00400793          	li	a5,4
     bc8:	00f50e63          	beq	a0,a5,be4 <set_displays.constprop.5+0x84>
     bcc:	00500793          	li	a5,5
     bd0:	02f51263          	bne	a0,a5,bf4 <set_displays.constprop.5+0x94>
     bd4:	040007b7          	lui	a5,0x4000
     bd8:	f9200713          	li	a4,-110
     bdc:	04e78823          	sb	a4,80(a5) # 4000050 <_stack_end+0x3efec94>
     be0:	00008067          	ret
     be4:	040007b7          	lui	a5,0x4000
     be8:	f9900713          	li	a4,-103
     bec:	04e78823          	sb	a4,80(a5) # 4000050 <_stack_end+0x3efec94>
     bf0:	00008067          	ret
     bf4:	00600793          	li	a5,6
     bf8:	00f51a63          	bne	a0,a5,c0c <set_displays.constprop.5+0xac>
     bfc:	040007b7          	lui	a5,0x4000
     c00:	f8200713          	li	a4,-126
     c04:	04e78823          	sb	a4,80(a5) # 4000050 <_stack_end+0x3efec94>
     c08:	00008067          	ret
     c0c:	00700793          	li	a5,7
     c10:	00f50e63          	beq	a0,a5,c2c <set_displays.constprop.5+0xcc>
     c14:	00800793          	li	a5,8
     c18:	02f51263          	bne	a0,a5,c3c <set_displays.constprop.5+0xdc>
     c1c:	040007b7          	lui	a5,0x4000
     c20:	f8000713          	li	a4,-128
     c24:	04e78823          	sb	a4,80(a5) # 4000050 <_stack_end+0x3efec94>
     c28:	00008067          	ret
     c2c:	040007b7          	lui	a5,0x4000
     c30:	ff800713          	li	a4,-8
     c34:	04e78823          	sb	a4,80(a5) # 4000050 <_stack_end+0x3efec94>
     c38:	00008067          	ret
     c3c:	00900793          	li	a5,9
     c40:	f4f512e3          	bne	a0,a5,b84 <set_displays.constprop.5+0x24>
     c44:	040007b7          	lui	a5,0x4000
     c48:	f9000713          	li	a4,-112
     c4c:	04e78823          	sb	a4,80(a5) # 4000050 <_stack_end+0x3efec94>
     c50:	00008067          	ret

00000c54 <set_leds>:
     c54:	040007b7          	lui	a5,0x4000
     c58:	00a7a023          	sw	a0,0(a5) # 4000000 <_stack_end+0x3efec44>
     c5c:	00008067          	ret

00000c60 <reset_disp>:
     c60:	fff00713          	li	a4,-1
     c64:	040006b7          	lui	a3,0x4000
     c68:	040007b7          	lui	a5,0x4000
     c6c:	04e68823          	sb	a4,80(a3) # 4000050 <_stack_end+0x3efec94>
     c70:	06e78023          	sb	a4,96(a5) # 4000060 <_stack_end+0x3efeca4>
     c74:	06e78823          	sb	a4,112(a5)
     c78:	08e78023          	sb	a4,128(a5)
     c7c:	08e78823          	sb	a4,144(a5)
     c80:	0ae78023          	sb	a4,160(a5)
     c84:	00008067          	ret

00000c88 <set_displays>:
     c88:	00100793          	li	a5,1
     c8c:	06a7de63          	bge	a5,a0,d08 <set_displays+0x80>
     c90:	ffe50793          	addi	a5,a0,-2
     c94:	04000737          	lui	a4,0x4000
     c98:	00479793          	slli	a5,a5,0x4
     c9c:	06070713          	addi	a4,a4,96 # 4000060 <_stack_end+0x3efeca4>
     ca0:	00e787b3          	add	a5,a5,a4
     ca4:	02058a63          	beqz	a1,cd8 <set_displays+0x50>
     ca8:	00100713          	li	a4,1
     cac:	04e58863          	beq	a1,a4,cfc <set_displays+0x74>
     cb0:	00200713          	li	a4,2
     cb4:	06e59063          	bne	a1,a4,d14 <set_displays+0x8c>
     cb8:	fa400713          	li	a4,-92
     cbc:	ffd50513          	addi	a0,a0,-3
     cc0:	00e78023          	sb	a4,0(a5)
     cc4:	ffd57513          	andi	a0,a0,-3
     cc8:	02050263          	beqz	a0,cec <set_displays+0x64>
     ccc:	00008067          	ret
     cd0:	00a00713          	li	a4,10
     cd4:	00e59663          	bne	a1,a4,ce0 <set_displays+0x58>
     cd8:	fc000713          	li	a4,-64
     cdc:	00e78023          	sb	a4,0(a5)
     ce0:	ffd50513          	addi	a0,a0,-3
     ce4:	ffd57513          	andi	a0,a0,-3
     ce8:	fe0512e3          	bnez	a0,ccc <set_displays+0x44>
     cec:	0007c703          	lbu	a4,0(a5)
     cf0:	08074713          	xori	a4,a4,128
     cf4:	00e78023          	sb	a4,0(a5)
     cf8:	00008067          	ret
     cfc:	ff900713          	li	a4,-7
     d00:	00e78023          	sb	a4,0(a5)
     d04:	fddff06f          	j	ce0 <set_displays+0x58>
     d08:	040007b7          	lui	a5,0x4000
     d0c:	05078793          	addi	a5,a5,80 # 4000050 <_stack_end+0x3efec94>
     d10:	f95ff06f          	j	ca4 <set_displays+0x1c>
     d14:	00300713          	li	a4,3
     d18:	00e59863          	bne	a1,a4,d28 <set_displays+0xa0>
     d1c:	fb000713          	li	a4,-80
     d20:	00e78023          	sb	a4,0(a5)
     d24:	fbdff06f          	j	ce0 <set_displays+0x58>
     d28:	00400713          	li	a4,4
     d2c:	02e58663          	beq	a1,a4,d58 <set_displays+0xd0>
     d30:	00500713          	li	a4,5
     d34:	00e58c63          	beq	a1,a4,d4c <set_displays+0xc4>
     d38:	00600713          	li	a4,6
     d3c:	02e59463          	bne	a1,a4,d64 <set_displays+0xdc>
     d40:	f8200713          	li	a4,-126
     d44:	00e78023          	sb	a4,0(a5)
     d48:	f99ff06f          	j	ce0 <set_displays+0x58>
     d4c:	f9200713          	li	a4,-110
     d50:	00e78023          	sb	a4,0(a5)
     d54:	f8dff06f          	j	ce0 <set_displays+0x58>
     d58:	f9900713          	li	a4,-103
     d5c:	00e78023          	sb	a4,0(a5)
     d60:	f81ff06f          	j	ce0 <set_displays+0x58>
     d64:	00700713          	li	a4,7
     d68:	00e59863          	bne	a1,a4,d78 <set_displays+0xf0>
     d6c:	ff800713          	li	a4,-8
     d70:	00e78023          	sb	a4,0(a5)
     d74:	f6dff06f          	j	ce0 <set_displays+0x58>
     d78:	00800713          	li	a4,8
     d7c:	00e58c63          	beq	a1,a4,d94 <set_displays+0x10c>
     d80:	00900713          	li	a4,9
     d84:	f4e596e3          	bne	a1,a4,cd0 <set_displays+0x48>
     d88:	f9000713          	li	a4,-112
     d8c:	00e78023          	sb	a4,0(a5)
     d90:	f51ff06f          	j	ce0 <set_displays+0x58>
     d94:	f8000713          	li	a4,-128
     d98:	00e78023          	sb	a4,0(a5)
     d9c:	f45ff06f          	j	ce0 <set_displays+0x58>

00000da0 <clock_counter>:
     da0:	000016b7          	lui	a3,0x1
     da4:	3286a783          	lw	a5,808(a3) # 1328 <sec_counter>
     da8:	00001637          	lui	a2,0x1
     dac:	03b00593          	li	a1,59
     db0:	00178793          	addi	a5,a5,1
     db4:	32f6a423          	sw	a5,808(a3)
     db8:	32462703          	lw	a4,804(a2) # 1324 <min_counter>
     dbc:	00f5d863          	bge	a1,a5,dcc <clock_counter+0x2c>
     dc0:	00170713          	addi	a4,a4,1
     dc4:	32e62223          	sw	a4,804(a2)
     dc8:	3206a423          	sw	zero,808(a3)
     dcc:	03b00793          	li	a5,59
     dd0:	00e7dc63          	bge	a5,a4,de8 <clock_counter+0x48>
     dd4:	00001737          	lui	a4,0x1
     dd8:	32072783          	lw	a5,800(a4) # 1320 <hr_counter>
     ddc:	32062223          	sw	zero,804(a2)
     de0:	00178793          	addi	a5,a5,1
     de4:	32f72023          	sw	a5,800(a4)
     de8:	00008067          	ret

00000dec <display_time_tens>:
     dec:	000017b7          	lui	a5,0x1
     df0:	ff010113          	addi	sp,sp,-16
     df4:	32c7a503          	lw	a0,812(a5) # 132c <timeoutcount>
     df8:	000017b7          	lui	a5,0x1
     dfc:	01212023          	sw	s2,0(sp)
     e00:	3287a903          	lw	s2,808(a5) # 1328 <sec_counter>
     e04:	000017b7          	lui	a5,0x1
     e08:	00112623          	sw	ra,12(sp)
     e0c:	00812423          	sw	s0,8(sp)
     e10:	00912223          	sw	s1,4(sp)
     e14:	00a00413          	li	s0,10
     e18:	3247a483          	lw	s1,804(a5) # 1324 <min_counter>
     e1c:	d45ff0ef          	jal	b60 <set_displays.constprop.5>
     e20:	02896533          	rem	a0,s2,s0
     e24:	040007b7          	lui	a5,0x4000
     e28:	fc000713          	li	a4,-64
     e2c:	06e78023          	sb	a4,96(a5) # 4000060 <_stack_end+0x3efeca4>
     e30:	bddff0ef          	jal	a0c <set_displays.constprop.3>
     e34:	02894533          	div	a0,s2,s0
     e38:	ae1ff0ef          	jal	918 <set_displays.constprop.2>
     e3c:	0284e533          	rem	a0,s1,s0
     e40:	985ff0ef          	jal	7c4 <set_displays.constprop.1>
     e44:	0284c533          	div	a0,s1,s0
     e48:	00812403          	lw	s0,8(sp)
     e4c:	00c12083          	lw	ra,12(sp)
     e50:	00412483          	lw	s1,4(sp)
     e54:	00012903          	lw	s2,0(sp)
     e58:	01010113          	addi	sp,sp,16
     e5c:	875ff06f          	j	6d0 <set_displays.constprop.0>

00000e60 <display_time>:
     e60:	fe010113          	addi	sp,sp,-32
     e64:	000017b7          	lui	a5,0x1
     e68:	00812c23          	sw	s0,24(sp)
     e6c:	3287a403          	lw	s0,808(a5) # 1328 <sec_counter>
     e70:	00a00793          	li	a5,10
     e74:	00001737          	lui	a4,0x1
     e78:	02f46533          	rem	a0,s0,a5
     e7c:	32472683          	lw	a3,804(a4) # 1324 <min_counter>
     e80:	00001737          	lui	a4,0x1
     e84:	32072703          	lw	a4,800(a4) # 1320 <hr_counter>
     e88:	00912a23          	sw	s1,20(sp)
     e8c:	01212823          	sw	s2,16(sp)
     e90:	01312623          	sw	s3,12(sp)
     e94:	01412423          	sw	s4,8(sp)
     e98:	00112e23          	sw	ra,28(sp)
     e9c:	02f44433          	div	s0,s0,a5
     ea0:	02f6ea33          	rem	s4,a3,a5
     ea4:	02f6c933          	div	s2,a3,a5
     ea8:	02f769b3          	rem	s3,a4,a5
     eac:	02f744b3          	div	s1,a4,a5
     eb0:	cb1ff0ef          	jal	b60 <set_displays.constprop.5>
     eb4:	02040663          	beqz	s0,ee0 <display_time+0x80>
     eb8:	00100793          	li	a5,1
     ebc:	06f40663          	beq	s0,a5,f28 <display_time+0xc8>
     ec0:	00200793          	li	a5,2
     ec4:	06f41a63          	bne	s0,a5,f38 <display_time+0xd8>
     ec8:	040007b7          	lui	a5,0x4000
     ecc:	fa400713          	li	a4,-92
     ed0:	06e78023          	sb	a4,96(a5) # 4000060 <_stack_end+0x3efeca4>
     ed4:	0180006f          	j	eec <display_time+0x8c>
     ed8:	00a00793          	li	a5,10
     edc:	00f41863          	bne	s0,a5,eec <display_time+0x8c>
     ee0:	040007b7          	lui	a5,0x4000
     ee4:	fc000713          	li	a4,-64
     ee8:	06e78023          	sb	a4,96(a5) # 4000060 <_stack_end+0x3efeca4>
     eec:	000a0513          	mv	a0,s4
     ef0:	b1dff0ef          	jal	a0c <set_displays.constprop.3>
     ef4:	00090513          	mv	a0,s2
     ef8:	a21ff0ef          	jal	918 <set_displays.constprop.2>
     efc:	00098513          	mv	a0,s3
     f00:	8c5ff0ef          	jal	7c4 <set_displays.constprop.1>
     f04:	01812403          	lw	s0,24(sp)
     f08:	01c12083          	lw	ra,28(sp)
     f0c:	01012903          	lw	s2,16(sp)
     f10:	00c12983          	lw	s3,12(sp)
     f14:	00812a03          	lw	s4,8(sp)
     f18:	00048513          	mv	a0,s1
     f1c:	01412483          	lw	s1,20(sp)
     f20:	02010113          	addi	sp,sp,32
     f24:	facff06f          	j	6d0 <set_displays.constprop.0>
     f28:	040007b7          	lui	a5,0x4000
     f2c:	ff900713          	li	a4,-7
     f30:	06e78023          	sb	a4,96(a5) # 4000060 <_stack_end+0x3efeca4>
     f34:	fb9ff06f          	j	eec <display_time+0x8c>
     f38:	00300793          	li	a5,3
     f3c:	00f41a63          	bne	s0,a5,f50 <display_time+0xf0>
     f40:	040007b7          	lui	a5,0x4000
     f44:	fb000713          	li	a4,-80
     f48:	06e78023          	sb	a4,96(a5) # 4000060 <_stack_end+0x3efeca4>
     f4c:	fa1ff06f          	j	eec <display_time+0x8c>
     f50:	00400793          	li	a5,4
     f54:	00f40e63          	beq	s0,a5,f70 <display_time+0x110>
     f58:	00500793          	li	a5,5
     f5c:	02f41263          	bne	s0,a5,f80 <display_time+0x120>
     f60:	040007b7          	lui	a5,0x4000
     f64:	f9200713          	li	a4,-110
     f68:	06e78023          	sb	a4,96(a5) # 4000060 <_stack_end+0x3efeca4>
     f6c:	f81ff06f          	j	eec <display_time+0x8c>
     f70:	040007b7          	lui	a5,0x4000
     f74:	f9900713          	li	a4,-103
     f78:	06e78023          	sb	a4,96(a5) # 4000060 <_stack_end+0x3efeca4>
     f7c:	f71ff06f          	j	eec <display_time+0x8c>
     f80:	00600793          	li	a5,6
     f84:	00f41a63          	bne	s0,a5,f98 <display_time+0x138>
     f88:	040007b7          	lui	a5,0x4000
     f8c:	f8200713          	li	a4,-126
     f90:	06e78023          	sb	a4,96(a5) # 4000060 <_stack_end+0x3efeca4>
     f94:	f59ff06f          	j	eec <display_time+0x8c>
     f98:	00700793          	li	a5,7
     f9c:	00f40e63          	beq	s0,a5,fb8 <display_time+0x158>
     fa0:	00800793          	li	a5,8
     fa4:	02f41263          	bne	s0,a5,fc8 <display_time+0x168>
     fa8:	040007b7          	lui	a5,0x4000
     fac:	f8000713          	li	a4,-128
     fb0:	06e78023          	sb	a4,96(a5) # 4000060 <_stack_end+0x3efeca4>
     fb4:	f39ff06f          	j	eec <display_time+0x8c>
     fb8:	040007b7          	lui	a5,0x4000
     fbc:	ff800713          	li	a4,-8
     fc0:	06e78023          	sb	a4,96(a5) # 4000060 <_stack_end+0x3efeca4>
     fc4:	f29ff06f          	j	eec <display_time+0x8c>
     fc8:	00900793          	li	a5,9
     fcc:	f0f416e3          	bne	s0,a5,ed8 <display_time+0x78>
     fd0:	040007b7          	lui	a5,0x4000
     fd4:	f9000713          	li	a4,-112
     fd8:	06e78023          	sb	a4,96(a5) # 4000060 <_stack_end+0x3efeca4>
     fdc:	f11ff06f          	j	eec <display_time+0x8c>

00000fe0 <get_sw>:
     fe0:	040007b7          	lui	a5,0x4000
     fe4:	0107a503          	lw	a0,16(a5) # 4000010 <_stack_end+0x3efec54>
     fe8:	00008067          	ret

00000fec <get_btn>:
     fec:	040007b7          	lui	a5,0x4000
     ff0:	0d07a503          	lw	a0,208(a5) # 40000d0 <_stack_end+0x3efed14>
     ff4:	00157513          	andi	a0,a0,1
     ff8:	00008067          	ret

00000ffc <handle_interrupt>:
     ffc:	00008067          	ret

00001000 <labinit>:
    1000:	000017b7          	lui	a5,0x1
    1004:	3147a603          	lw	a2,788(a5) # 1314 <TMR1_PERLO>
    1008:	000017b7          	lui	a5,0x1
    100c:	3107a683          	lw	a3,784(a5) # 1310 <TMR1_PERHI>
    1010:	00001737          	lui	a4,0x1
    1014:	ffffc7b7          	lui	a5,0xffffc
    1018:	31872703          	lw	a4,792(a4) # 1318 <TMR1_CR>
    101c:	6bf78793          	addi	a5,a5,1727 # ffffc6bf <_stack_end+0xffefb303>
    1020:	00f61023          	sh	a5,0(a2)
    1024:	02d00793          	li	a5,45
    1028:	00f69023          	sh	a5,0(a3)
    102c:	00600793          	li	a5,6
    1030:	00f71023          	sh	a5,0(a4)
    1034:	00008067          	ret

00001038 <main>:
    1038:	000017b7          	lui	a5,0x1
    103c:	3147a603          	lw	a2,788(a5) # 1314 <TMR1_PERLO>
    1040:	000017b7          	lui	a5,0x1
    1044:	fb010113          	addi	sp,sp,-80
    1048:	3107a683          	lw	a3,784(a5) # 1310 <TMR1_PERHI>
    104c:	00001737          	lui	a4,0x1
    1050:	ffffc7b7          	lui	a5,0xffffc
    1054:	04812423          	sw	s0,72(sp)
    1058:	04912223          	sw	s1,68(sp)
    105c:	03412c23          	sw	s4,56(sp)
    1060:	03512a23          	sw	s5,52(sp)
    1064:	03612823          	sw	s6,48(sp)
    1068:	03712623          	sw	s7,44(sp)
    106c:	03812423          	sw	s8,40(sp)
    1070:	03912223          	sw	s9,36(sp)
    1074:	03a12023          	sw	s10,32(sp)
    1078:	01b12e23          	sw	s11,28(sp)
    107c:	31872703          	lw	a4,792(a4) # 1318 <TMR1_CR>
    1080:	04112623          	sw	ra,76(sp)
    1084:	05212023          	sw	s2,64(sp)
    1088:	03312e23          	sw	s3,60(sp)
    108c:	6bf78793          	addi	a5,a5,1727 # ffffc6bf <_stack_end+0xffefb303>
    1090:	00f61023          	sh	a5,0(a2)
    1094:	02d00793          	li	a5,45
    1098:	00f69023          	sh	a5,0(a3)
    109c:	00600793          	li	a5,6
    10a0:	040006b7          	lui	a3,0x4000
    10a4:	040004b7          	lui	s1,0x4000
    10a8:	04000d37          	lui	s10,0x4000
    10ac:	00f71023          	sh	a5,0(a4)
    10b0:	06068793          	addi	a5,a3,96 # 4000060 <_stack_end+0x3efeca4>
    10b4:	00001b37          	lui	s6,0x1
    10b8:	00001db7          	lui	s11,0x1
    10bc:	00001a37          	lui	s4,0x1
    10c0:	00001c37          	lui	s8,0x1
    10c4:	00001bb7          	lui	s7,0x1
    10c8:	00001cb7          	lui	s9,0x1
    10cc:	00a00413          	li	s0,10
    10d0:	00f12623          	sw	a5,12(sp)
    10d4:	0d048493          	addi	s1,s1,208 # 40000d0 <_stack_end+0x3efed14>
    10d8:	010d0d13          	addi	s10,s10,16 # 4000010 <_stack_end+0x3efec54>
    10dc:	00100a93          	li	s5,1
    10e0:	32cb2503          	lw	a0,812(s6) # 132c <timeoutcount>
    10e4:	04850e63          	beq	a0,s0,1140 <main+0x108>
    10e8:	31cca783          	lw	a5,796(s9) # 131c <TMR1_SR>
    10ec:	0007d783          	lhu	a5,0(a5)
    10f0:	0017f793          	andi	a5,a5,1
    10f4:	0c079063          	bnez	a5,11b4 <main+0x17c>
    10f8:	0004a783          	lw	a5,0(s1)
    10fc:	0017f793          	andi	a5,a5,1
    1100:	fe0780e3          	beqz	a5,10e0 <main+0xa8>
    1104:	000d2783          	lw	a5,0(s10)
    1108:	000d2583          	lw	a1,0(s10)
    110c:	4087d793          	srai	a5,a5,0x8
    1110:	0037f793          	andi	a5,a5,3
    1114:	0f578e63          	beq	a5,s5,1210 <main+0x1d8>
    1118:	00200713          	li	a4,2
    111c:	10e78263          	beq	a5,a4,1220 <main+0x1e8>
    1120:	00300593          	li	a1,3
    1124:	fab79ee3          	bne	a5,a1,10e0 <main+0xa8>
    1128:	000d2783          	lw	a5,0(s10)
    112c:	32cb2503          	lw	a0,812(s6)
    1130:	00001737          	lui	a4,0x1
    1134:	03f7f793          	andi	a5,a5,63
    1138:	32f72023          	sw	a5,800(a4) # 1320 <hr_counter>
    113c:	fa8516e3          	bne	a0,s0,10e8 <main+0xb0>
    1140:	328da783          	lw	a5,808(s11) # 1328 <sec_counter>
    1144:	03b00713          	li	a4,59
    1148:	324a2583          	lw	a1,804(s4) # 1324 <min_counter>
    114c:	00178793          	addi	a5,a5,1
    1150:	32fda423          	sw	a5,808(s11)
    1154:	00f75863          	bge	a4,a5,1164 <main+0x12c>
    1158:	00158593          	addi	a1,a1,1
    115c:	32ba2223          	sw	a1,804(s4)
    1160:	320da423          	sw	zero,808(s11)
    1164:	03b00793          	li	a5,59
    1168:	00b7dc63          	bge	a5,a1,1180 <main+0x148>
    116c:	00001737          	lui	a4,0x1
    1170:	32072783          	lw	a5,800(a4) # 1320 <hr_counter>
    1174:	320a2223          	sw	zero,804(s4)
    1178:	00178793          	addi	a5,a5,1
    117c:	32f72023          	sw	a5,800(a4)
    1180:	330c0513          	addi	a0,s8,816 # 1330 <mytime>
    1184:	844ff0ef          	jal	1c8 <tick>
    1188:	330c2583          	lw	a1,816(s8)
    118c:	2e8b8513          	addi	a0,s7,744 # 12e8 <textstring>
    1190:	8f0ff0ef          	jal	280 <time2string>
    1194:	2e8b8513          	addi	a0,s7,744
    1198:	fddfe0ef          	jal	174 <display_string>
    119c:	31cca783          	lw	a5,796(s9)
    11a0:	320b2623          	sw	zero,812(s6)
    11a4:	00000513          	li	a0,0
    11a8:	0007d783          	lhu	a5,0(a5)
    11ac:	0017f793          	andi	a5,a5,1
    11b0:	f40784e3          	beqz	a5,10f8 <main+0xc0>
    11b4:	328da983          	lw	s3,808(s11)
    11b8:	00150513          	addi	a0,a0,1
    11bc:	324a2903          	lw	s2,804(s4)
    11c0:	32ab2623          	sw	a0,812(s6)
    11c4:	99dff0ef          	jal	b60 <set_displays.constprop.5>
    11c8:	0289e533          	rem	a0,s3,s0
    11cc:	00c12783          	lw	a5,12(sp)
    11d0:	fc000713          	li	a4,-64
    11d4:	00e78023          	sb	a4,0(a5)
    11d8:	835ff0ef          	jal	a0c <set_displays.constprop.3>
    11dc:	0289c533          	div	a0,s3,s0
    11e0:	f38ff0ef          	jal	918 <set_displays.constprop.2>
    11e4:	02896533          	rem	a0,s2,s0
    11e8:	ddcff0ef          	jal	7c4 <set_displays.constprop.1>
    11ec:	02894533          	div	a0,s2,s0
    11f0:	ce0ff0ef          	jal	6d0 <set_displays.constprop.0>
    11f4:	31cca503          	lw	a0,796(s9)
    11f8:	000105b7          	lui	a1,0x10
    11fc:	ffe58593          	addi	a1,a1,-2 # fffe <__global_pointer+0xe4f1>
    1200:	00055783          	lhu	a5,0(a0)
    1204:	00b7f7b3          	and	a5,a5,a1
    1208:	00f51023          	sh	a5,0(a0)
    120c:	eedff06f          	j	10f8 <main+0xc0>
    1210:	000d2783          	lw	a5,0(s10)
    1214:	03f7f793          	andi	a5,a5,63
    1218:	32fda423          	sw	a5,808(s11)
    121c:	ec5ff06f          	j	10e0 <main+0xa8>
    1220:	000d2783          	lw	a5,0(s10)
    1224:	03f7f793          	andi	a5,a5,63
    1228:	32fa2223          	sw	a5,804(s4)
    122c:	eb5ff06f          	j	10e0 <main+0xa8>
